
cpu_1.elf:     file format elf32-littlenios2
cpu_1.elf
architecture: nios2:r1, flags 0x00000112:
EXEC_P, HAS_SYMS, D_PAGED
start address 0x00000240

Program Header:
    LOAD off    0x00001000 vaddr 0x00000000 paddr 0x00000000 align 2**12
         filesz 0x00000020 memsz 0x00000020 flags r-x
    LOAD off    0x00001020 vaddr 0x00000020 paddr 0x00000020 align 2**12
         filesz 0x00010258 memsz 0x00010258 flags r-x
    LOAD off    0x00011278 vaddr 0x00010278 paddr 0x00011d7c align 2**12
         filesz 0x00001b04 memsz 0x00001b04 flags rw-
    LOAD off    0x00013880 vaddr 0x00013880 paddr 0x00013880 align 2**12
         filesz 0x00000000 memsz 0x00000160 flags rw-

Sections:
Idx Name          Size      VMA       LMA       File off  Algn
  0 .entry        00000020  00000000  00000000  00001000  2**5
                  CONTENTS, ALLOC, LOAD, READONLY, CODE
  1 .exceptions   00000220  00000020  00000020  00001020  2**2
                  CONTENTS, ALLOC, LOAD, READONLY, CODE
  2 .text         0000f8f0  00000240  00000240  00001240  2**2
                  CONTENTS, ALLOC, LOAD, READONLY, CODE
  3 .rodata       00000748  0000fb30  0000fb30  00010b30  2**2
                  CONTENTS, ALLOC, LOAD, READONLY, DATA
  4 .rwdata       00001b04  00010278  00011d7c  00011278  2**2
                  CONTENTS, ALLOC, LOAD, DATA, SMALL_DATA
  5 .bss          00000160  00013880  00013880  00013880  2**2
                  ALLOC, SMALL_DATA
  6 .sdram_controller 00000000  000139e0  000139e0  00012d7c  2**0
                  CONTENTS
  7 .onchip_memory2_0 00000000  04020000  04020000  00012d7c  2**0
                  CONTENTS
  8 .comment      00000023  00000000  00000000  00012d7c  2**0
                  CONTENTS, READONLY
  9 .debug_aranges 00000fa0  00000000  00000000  00012da0  2**3
                  CONTENTS, READONLY, DEBUGGING
 10 .debug_info   000253d6  00000000  00000000  00013d40  2**0
                  CONTENTS, READONLY, DEBUGGING
 11 .debug_abbrev 0000987e  00000000  00000000  00039116  2**0
                  CONTENTS, READONLY, DEBUGGING
 12 .debug_line   0000ba56  00000000  00000000  00042994  2**0
                  CONTENTS, READONLY, DEBUGGING
 13 .debug_frame  00002444  00000000  00000000  0004e3ec  2**2
                  CONTENTS, READONLY, DEBUGGING
 14 .debug_str    00003a40  00000000  00000000  00050830  2**0
                  CONTENTS, READONLY, DEBUGGING
 15 .debug_loc    000171e9  00000000  00000000  00054270  2**0
                  CONTENTS, READONLY, DEBUGGING
 16 .debug_alt_sim_info 00000030  00000000  00000000  0006b45c  2**2
                  CONTENTS, READONLY, DEBUGGING
 17 .debug_ranges 00001850  00000000  00000000  0006b490  2**3
                  CONTENTS, READONLY, DEBUGGING
 18 .thread_model 00000003  00000000  00000000  000702da  2**0
                  CONTENTS, READONLY
 19 .cpu          00000005  00000000  00000000  000702dd  2**0
                  CONTENTS, READONLY
 20 .qsys         00000001  00000000  00000000  000702e2  2**0
                  CONTENTS, READONLY
 21 .simulation_enabled 00000001  00000000  00000000  000702e3  2**0
                  CONTENTS, READONLY
 22 .sysid_hash   00000004  00000000  00000000  000702e4  2**0
                  CONTENTS, READONLY
 23 .sysid_base   00000004  00000000  00000000  000702e8  2**0
                  CONTENTS, READONLY
 24 .sysid_time   00000004  00000000  00000000  000702ec  2**0
                  CONTENTS, READONLY
 25 .stderr_dev   00000009  00000000  00000000  000702f0  2**0
                  CONTENTS, READONLY
 26 .stdin_dev    00000009  00000000  00000000  000702f9  2**0
                  CONTENTS, READONLY
 27 .stdout_dev   00000009  00000000  00000000  00070302  2**0
                  CONTENTS, READONLY
 28 .sopc_system_name 00000009  00000000  00000000  0007030b  2**0
                  CONTENTS, READONLY
 29 .quartus_project_dir 00000031  00000000  00000000  00070314  2**0
                  CONTENTS, READONLY
 30 .jdi          0000e05e  00000000  00000000  00070345  2**0
                  CONTENTS, READONLY
 31 .sopcinfo     000c7fcb  00000000  00000000  0007e3a3  2**0
                  CONTENTS, READONLY
SYMBOL TABLE:
00000000 l    d  .entry	00000000 .entry
00000020 l    d  .exceptions	00000000 .exceptions
00000240 l    d  .text	00000000 .text
0000fb30 l    d  .rodata	00000000 .rodata
00010278 l    d  .rwdata	00000000 .rwdata
00013880 l    d  .bss	00000000 .bss
000139e0 l    d  .sdram_controller	00000000 .sdram_controller
04020000 l    d  .onchip_memory2_0	00000000 .onchip_memory2_0
00000000 l    d  .comment	00000000 .comment
00000000 l    d  .debug_aranges	00000000 .debug_aranges
00000000 l    d  .debug_info	00000000 .debug_info
00000000 l    d  .debug_abbrev	00000000 .debug_abbrev
00000000 l    d  .debug_line	00000000 .debug_line
00000000 l    d  .debug_frame	00000000 .debug_frame
00000000 l    d  .debug_str	00000000 .debug_str
00000000 l    d  .debug_loc	00000000 .debug_loc
00000000 l    d  .debug_alt_sim_info	00000000 .debug_alt_sim_info
00000000 l    d  .debug_ranges	00000000 .debug_ranges
00000000 l    df *ABS*	00000000 ../cpu_1_bsp//obj/HAL/src/crt0.o
00000288 l       .text	00000000 alt_after_alt_main
00000000 l    df *ABS*	00000000 alt_irq_handler.c
00000000 l    df *ABS*	00000000 alt_instruction_exception_entry.c
00000000 l    df *ABS*	00000000 cpu_1.c
00000000 l    df *ABS*	00000000 memcpy.c
00000000 l    df *ABS*	00000000 memset.c
00000000 l    df *ABS*	00000000 printf.c
00000000 l    df *ABS*	00000000 putchar.c
00000000 l    df *ABS*	00000000 puts.c
00000000 l    df *ABS*	00000000 strlen.c
00000000 l    df *ABS*	00000000 vfprintf.c
0000feba l     O .rodata	00000010 zeroes.4255
000028f0 l     F .text	000000bc __sbprintf
0000feca l     O .rodata	00000010 blanks.4254
00000000 l    df *ABS*	00000000 wsetup.c
00000000 l    df *ABS*	00000000 dtoa.c
00002b00 l     F .text	00000200 quorem
00000000 l    df *ABS*	00000000 fflush.c
00000000 l    df *ABS*	00000000 findfp.c
000046bc l     F .text	00000008 __fp_lock
000046c4 l     F .text	00000008 __fp_unlock
000046d8 l     F .text	0000019c __sinit.part.1
00000000 l    df *ABS*	00000000 mallocr.c
00000000 l    df *ABS*	00000000 fvwrite.c
00000000 l    df *ABS*	00000000 fwalk.c
00000000 l    df *ABS*	00000000 impure.c
00010278 l     O .rwdata	00000424 impure_data
00000000 l    df *ABS*	00000000 locale.c
000106bc l     O .rwdata	00000020 lc_ctype_charset
0001069c l     O .rwdata	00000020 lc_message_charset
000106dc l     O .rwdata	00000038 lconv
00000000 l    df *ABS*	00000000 makebuf.c
00000000 l    df *ABS*	00000000 mallocr.c
00000000 l    df *ABS*	00000000 memchr.c
00000000 l    df *ABS*	00000000 memmove.c
00000000 l    df *ABS*	00000000 mprec.c
0000fefc l     O .rodata	0000000c p05.2710
00000000 l    df *ABS*	00000000 putc.c
00000000 l    df *ABS*	00000000 mallocr.c
00000000 l    df *ABS*	00000000 s_fpclassify.c
00000000 l    df *ABS*	00000000 sbrkr.c
00000000 l    df *ABS*	00000000 stdio.c
00000000 l    df *ABS*	00000000 strcmp.c
00000000 l    df *ABS*	00000000 vfprintf.c
00007a58 l     F .text	000000fc __sprint_r.part.0
00010030 l     O .rodata	00000010 blanks.4199
00010020 l     O .rodata	00000010 zeroes.4200
00008e60 l     F .text	000000bc __sbprintf
00000000 l    df *ABS*	00000000 wbuf.c
00000000 l    df *ABS*	00000000 writer.c
00000000 l    df *ABS*	00000000 closer.c
00000000 l    df *ABS*	00000000 mallocr.c
00000000 l    df *ABS*	00000000 fclose.c
00000000 l    df *ABS*	00000000 fputwc.c
00000000 l    df *ABS*	00000000 fstatr.c
00000000 l    df *ABS*	00000000 int_errno.c
00000000 l    df *ABS*	00000000 isattyr.c
00000000 l    df *ABS*	00000000 lseekr.c
00000000 l    df *ABS*	00000000 readr.c
00000000 l    df *ABS*	00000000 wcrtomb.c
00000000 l    df *ABS*	00000000 wctomb_r.c
00000000 l    df *ABS*	00000000 libgcc2.c
00000000 l    df *ABS*	00000000 libgcc2.c
00000000 l    df *ABS*	00000000 lib2-divmod.c
0000a364 l     F .text	0000006c udivmodsi4
00000000 l    df *ABS*	00000000 adddf3.c
00000000 l    df *ABS*	00000000 divdf3.c
00000000 l    df *ABS*	00000000 eqdf2.c
00000000 l    df *ABS*	00000000 gedf2.c
00000000 l    df *ABS*	00000000 ledf2.c
00000000 l    df *ABS*	00000000 muldf3.c
00000000 l    df *ABS*	00000000 subdf3.c
00000000 l    df *ABS*	00000000 fixdfsi.c
00000000 l    df *ABS*	00000000 floatsidf.c
00000000 l    df *ABS*	00000000 floatunsidf.c
00000000 l    df *ABS*	00000000 libgcc2.c
00000000 l    df *ABS*	00000000 libgcc2.c
00000000 l    df *ABS*	00000000 alt_close.c
0000ca90 l     F .text	00000050 alt_get_errno
00000000 l    df *ABS*	00000000 alt_dev.c
0000cbb0 l     F .text	0000002c alt_dev_null_write
00000000 l    df *ABS*	00000000 alt_errno.c
00000000 l    df *ABS*	00000000 alt_fstat.c
0000cbdc l     F .text	00000050 alt_get_errno
00000000 l    df *ABS*	00000000 alt_isatty.c
0000ccdc l     F .text	00000050 alt_get_errno
00000000 l    df *ABS*	00000000 alt_load.c
0000cdd0 l     F .text	00000064 alt_load_section
00000000 l    df *ABS*	00000000 alt_lseek.c
0000ceb4 l     F .text	00000050 alt_get_errno
00000000 l    df *ABS*	00000000 alt_main.c
00000000 l    df *ABS*	00000000 alt_malloc_lock.c
00000000 l    df *ABS*	00000000 alt_read.c
0000d090 l     F .text	00000050 alt_get_errno
00000000 l    df *ABS*	00000000 alt_release_fd.c
00000000 l    df *ABS*	00000000 alt_sbrk.c
00011d64 l     O .rwdata	00000004 heap_end
00000000 l    df *ABS*	00000000 alt_write.c
0000d2ec l     F .text	00000050 alt_get_errno
00000000 l    df *ABS*	00000000 alt_sys_init.c
0000d434 l     F .text	00000038 alt_dev_reg
0000d46c l     F .text	00000050 alt_get_errno
0000d4bc l     F .text	0000006c alt_avalon_mutex_reg
00010cc4 l     O .rwdata	00001060 jtag_uart
00011d24 l     O .rwdata	00000010 mutex
00000000 l    df *ABS*	00000000 altera_avalon_jtag_uart_fd.c
00000000 l    df *ABS*	00000000 altera_avalon_jtag_uart_init.c
0000d800 l     F .text	00000204 altera_avalon_jtag_uart_irq
0000da04 l     F .text	000000a8 altera_avalon_jtag_uart_timeout
00000000 l    df *ABS*	00000000 altera_avalon_jtag_uart_ioctl.c
00000000 l    df *ABS*	00000000 altera_avalon_jtag_uart_read.c
00000000 l    df *ABS*	00000000 altera_avalon_jtag_uart_write.c
00000000 l    df *ABS*	00000000 altera_avalon_mutex.c
0000e024 l     F .text	00000050 alt_get_errno
0000e074 l     F .text	0000007c alt_mutex_trylock
00000000 l    df *ABS*	00000000 altera_avalon_timer_sc.c
0000e2fc l     F .text	00000074 alt_avalon_timer_sc_irq
00000000 l    df *ABS*	00000000 perf_print_formatted_report.c
00000000 l    df *ABS*	00000000 alt_alarm_start.c
00000000 l    df *ABS*	00000000 alt_dcache_flush_all.c
00000000 l    df *ABS*	00000000 alt_dev_llist_insert.c
0000e7fc l     F .text	00000050 alt_get_errno
00000000 l    df *ABS*	00000000 alt_do_ctors.c
00000000 l    df *ABS*	00000000 alt_do_dtors.c
00000000 l    df *ABS*	00000000 alt_find_dev.c
00000000 l    df *ABS*	00000000 alt_icache_flush_all.c
00000000 l    df *ABS*	00000000 alt_iic.c
00000000 l    df *ABS*	00000000 alt_iic_isr_register.c
00000000 l    df *ABS*	00000000 alt_io_redirect.c
0000ed38 l     F .text	000000c0 alt_open_fd
00000000 l    df *ABS*	00000000 alt_irq_vars.c
00000000 l    df *ABS*	00000000 alt_open.c
0000ee70 l     F .text	00000050 alt_get_errno
0000eec0 l     F .text	000000cc alt_file_locked
00000000 l    df *ABS*	00000000 alt_tick.c
00000000 l    df *ABS*	00000000 altera_nios2_gen2_irq.c
00000000 l    df *ABS*	00000000 altera_avalon_performance_counter.c
00000000 l    df *ABS*	00000000 alt_find_file.c
00000000 l    df *ABS*	00000000 alt_get_fd.c
00000000 l    df *ABS*	00000000 alt_icache_flush.c
00000000 l    df *ABS*	00000000 atexit.c
00000000 l    df *ABS*	00000000 exit.c
00000000 l    df *ABS*	00000000 memcmp.c
00000000 l    df *ABS*	00000000 __atexit.c
00000000 l    df *ABS*	00000000 __call_atexit.c
00000000 l    df *ABS*	00000000 libgcc2.c
00000000 l    df *ABS*	00000000 alt_exit.c
000138b4 g     O .bss	00000004 alt_instruction_exception_handler
00000810 g     F .text	00000018 putchar
00006f64 g     F .text	00000074 _mprec_log10
00007050 g     F .text	0000008c __any_on
00009520 g     F .text	00000054 _isatty_r
0000ff08 g     O .rodata	00000028 __mprec_tinytens
0000cfd8 g     F .text	00000078 alt_main
00000828 g     F .text	000000a8 _puts_r
000138e0 g     O .bss	00000100 alt_irq
00009574 g     F .text	0000005c _lseek_r
00011d7c g       *ABS*	00000000 __flash_rwdata_start
0000b5f8 g     F .text	00000084 .hidden __eqdf2
000139e0 g       *ABS*	00000000 __alt_heap_start
000007cc g     F .text	0000003c printf
0000962c g     F .text	0000009c _wcrtomb_r
00007950 g     F .text	0000005c __sseek
00004a0c g     F .text	00000010 __sinit
0000f408 g     F .text	00000024 alt_get_cpu_freq
00008f1c g     F .text	00000138 __swbuf_r
000054b8 g     F .text	0000007c _setlocale_r
00004874 g     F .text	00000068 __sfmoreglue
0000d070 g     F .text	00000020 __malloc_unlock
00005fe0 g     F .text	0000015c memmove
0000e3f8 g     F .text	00000280 perf_print_formatted_report
000049f4 g     F .text	00000018 _cleanup
0000e1a8 g     F .text	00000040 altera_avalon_mutex_trylock
0000613c g     F .text	000000a8 _Balloc
0000b67c g     F .text	000000e0 .hidden __gtdf2
0000f280 g     F .text	00000020 altera_nios2_gen2_irq_init
00000000  w      *UND*	00000000 __errno
00000000 g     F .entry	0000001c __reset
0000e238 g     F .text	00000074 altera_avalon_mutex_is_mine
00000020 g       *ABS*	00000000 __flash_exceptions_start
000094c8 g     F .text	00000058 _fstat_r
00013898 g     O .bss	00000004 errno
000078cc g     F .text	00000008 __seofread
00000000 g       *ABS*	00000000 __alt_mem_sdram_controller
000138a0 g     O .bss	00000004 alt_argv
00019d34 g       *ABS*	00000000 _gp
00010b44 g     O .rwdata	00000180 alt_fd_list
00000808 g     F .text	00000008 _putchar_r
0000e9a8 g     F .text	00000090 alt_find_dev
00000544 g     F .text	00000138 memcpy
000046cc g     F .text	0000000c _cleanup_r
0000c8b8 g     F .text	000000d0 .hidden __floatsidf
0000edf8 g     F .text	00000078 alt_io_redirect
0000b75c g     F .text	000000e0 .hidden __ltdf2
0000fb30 g       *ABS*	00000000 __DTOR_END__
000008d0 g     F .text	00000014 puts
0000f680 g     F .text	0000009c alt_exception_cause_generated_bad_addr
000077b0 g     F .text	00000074 __fpclassifyd
00006ec0 g     F .text	000000a4 __ratio
00008e3c g     F .text	00000024 __vfiprintf_internal
0000dc00 g     F .text	0000020c altera_avalon_jtag_uart_read
00000000  w      *UND*	00000000 malloc
000007a0 g     F .text	0000002c _printf_r
04020000 g       *ABS*	00000000 __alt_mem_onchip_memory2_0
0000a480 g     F .text	00000008 .hidden __udivsi3
0000cd2c g     F .text	000000a4 isatty
0000ff58 g     O .rodata	000000c8 __mprec_tens
00005534 g     F .text	0000000c __locale_charset
0000f5f4 g     F .text	0000008c alt_icache_flush
00013894 g     O .bss	00000004 __malloc_top_pad
0000f3a8 g     F .text	00000040 perf_get_num_starts
00011d3c g     O .rwdata	00000004 __mb_cur_max
00005564 g     F .text	0000000c _localeconv_r
00006548 g     F .text	0000003c __i2b
00004e70 g     F .text	000004c0 __sfvwrite_r
00007824 g     F .text	00000054 _sbrk_r
000095d0 g     F .text	0000005c _read_r
00011d5c g     O .rwdata	00000004 alt_max_fd
000091e4 g     F .text	000000f0 _fclose_r
0000468c g     F .text	00000030 fflush
00013890 g     O .bss	00000004 __malloc_max_sbrked_mem
0000a490 g     F .text	0000089c .hidden __adddf3
00006c68 g     F .text	0000011c __b2d
00009dd4 g     F .text	00000590 .hidden __umoddi3
0000cf04 g     F .text	000000d4 lseek
0000e2ac g     F .text	00000050 altera_avalon_mutex_first_lock
00011d34 g     O .rwdata	00000004 _global_impure_ptr
00007248 g     F .text	00000568 _realloc_r
000139e0 g       *ABS*	00000000 __bss_end
0000ec48 g     F .text	000000f0 alt_iic_isr_register
0000f17c g     F .text	00000104 alt_tick
00009814 g     F .text	000005c0 .hidden __udivdi3
000092e8 g     F .text	00000184 _fputwc_r
0000ff30 g     O .rodata	00000028 __mprec_bigtens
0000632c g     F .text	00000104 __s2b
0000c988 g     F .text	000000a4 .hidden __floatunsidf
00006a10 g     F .text	00000060 __mcmp
00004a2c g     F .text	00000018 __fp_lock_all
0000ebfc g     F .text	0000004c alt_ic_irq_enabled
0000f0e4 g     F .text	00000098 alt_alarm_stop
000138a8 g     O .bss	00000004 alt_irq_active
000000fc g     F .exceptions	000000d0 alt_irq_handler
00010b1c g     O .rwdata	00000028 alt_dev_null
0000e0f0 g     F .text	00000054 altera_avalon_mutex_open
0000e7b8 g     F .text	00000044 alt_dcache_flush_all
00006430 g     F .text	00000068 __hi0bits
0000c830 g     F .text	00000088 .hidden __fixdfsi
00011d7c g       *ABS*	00000000 __ram_rwdata_end
00011d54 g     O .rwdata	00000008 alt_dev_list
0000d33c g     F .text	000000f8 write
000070dc g     F .text	000000a0 _putc_r
00011d68 g     O .rwdata	00000008 alt_mutex_list
00010278 g       *ABS*	00000000 __ram_rodata_end
0000cc2c g     F .text	000000b0 fstat
0000b75c g     F .text	000000e0 .hidden __ledf2
00006780 g     F .text	00000140 __pow5mult
00007b6c g     F .text	000012d0 ___vfiprintf_internal_r
00013888 g     O .bss	00000004 __nlocale_changed
0000a488 g     F .text	00000008 .hidden __umodsi3
000139e0 g       *ABS*	00000000 end
0000d73c g     F .text	000000c4 altera_avalon_jtag_uart_init
000001cc g     F .exceptions	00000074 alt_instruction_exception_entry
0000fb30 g       *ABS*	00000000 __CTOR_LIST__
01000000 g       *ABS*	00000000 __alt_stack_pointer
0000e370 g     F .text	00000088 alt_avalon_timer_sc_init
0000ca2c g     F .text	00000064 .hidden __clzsi2
0000de0c g     F .text	00000218 altera_avalon_jtag_uart_write
00004a1c g     F .text	00000004 __sfp_lock_acquire
00005ef8 g     F .text	000000e8 memchr
0000097c g     F .text	00001f50 ___vfprintf_internal_r
00004b80 g     F .text	000002f0 _free_r
00005540 g     F .text	00000010 __locale_mb_cur_max
0000f8f8 g     F .text	00000194 __call_exitprocs
00013884 g     O .bss	00000004 __mlocale_changed
00011d40 g     O .rwdata	00000004 __malloc_sbrk_base
00000240 g     F .text	0000004c _start
000138ac g     O .bss	00000004 _alt_tick_rate
0000fa8c g     F .text	00000070 .hidden __floatundidf
000068c0 g     F .text	00000150 __lshift
000138b0 g     O .bss	00000004 _alt_nticks
0000d0e0 g     F .text	000000fc read
0000d55c g     F .text	0000007c alt_sys_init
0000f7e4 g     F .text	00000114 __register_exitproc
0000e1e8 g     F .text	00000050 altera_avalon_mutex_unlock
00006584 g     F .text	000001fc __multiply
0000daac g     F .text	00000068 altera_avalon_jtag_uart_close
00010278 g       *ABS*	00000000 __ram_rwdata_start
0000fb30 g       *ABS*	00000000 __ram_rodata_start
000138b8 g     O .bss	00000028 __malloc_current_mallinfo
00006d84 g     F .text	0000013c __d2b
0000d5d8 g     F .text	00000060 altera_avalon_jtag_uart_read_fd
0000f540 g     F .text	000000b4 alt_get_fd
000090cc g     F .text	00000054 _close_r
0000f2a0 g     F .text	000000bc perf_get_section_time
0000f768 g     F .text	0000007c memcmp
0000d698 g     F .text	00000050 altera_avalon_jtag_uart_close_fd
000139e0 g       *ABS*	00000000 __alt_stack_base
0000d6e8 g     F .text	00000054 altera_avalon_jtag_uart_ioctl_fd
000029ac g     F .text	00000154 __swsetup_r
0000ad2c g     F .text	000008cc .hidden __divdf3
000048dc g     F .text	00000118 __sfp
00006fd8 g     F .text	00000078 __copybits
0000f35c g     F .text	0000004c perf_get_total_time
00010714 g     O .rwdata	00000408 __malloc_av_
00004a28 g     F .text	00000004 __sinit_lock_release
0000b83c g     F .text	00000724 .hidden __muldf3
00007878 g     F .text	00000054 __sread
0000f42c g     F .text	00000114 alt_find_file
0000e84c g     F .text	000000a4 alt_dev_llist_insert
0000d050 g     F .text	00000020 __malloc_lock
0000d23c g     F .text	000000b0 sbrk
00004630 g     F .text	0000005c _fflush_r
00009120 g     F .text	000000c4 _calloc_r
00013880 g       *ABS*	00000000 __bss_start
0000067c g     F .text	00000124 memset
0000028c g     F .text	000002b8 main
000138a4 g     O .bss	00000004 alt_envp
0001388c g     O .bss	00000004 __malloc_max_total_mem
0000d638 g     F .text	00000060 altera_avalon_jtag_uart_write_fd
00009054 g     F .text	0000001c __swbuf
000079ac g     F .text	00000008 __sclose
01000000 g       *ABS*	00000000 __alt_heap_limit
000092d4 g     F .text	00000014 fclose
0000e168 g     F .text	00000040 altera_avalon_mutex_lock
00002d00 g     F .text	00001728 _dtoa_r
00005750 g     F .text	000007a8 _malloc_r
00009788 g     F .text	00000030 __ascii_wctomb
00011d60 g     O .rwdata	00000004 alt_errno
00005330 g     F .text	000000c4 _fwalk
0000717c g     F .text	000000cc putc
0000a3d0 g     F .text	00000054 .hidden __divsi3
00004a5c g     F .text	00000124 _malloc_trim_r
0000fb30 g       *ABS*	00000000 __CTOR_END__
000079b4 g     F .text	000000a4 strcmp
0000fb30 g       *ABS*	00000000 __flash_rodata_start
0000fb30 g       *ABS*	00000000 __DTOR_LIST__
0000b5f8 g     F .text	00000084 .hidden __nedf2
0000d528 g     F .text	00000034 alt_irq_init
0000d1dc g     F .text	00000060 alt_release_fd
00010040 g     O .rodata	00000100 .hidden __clz_tab
00013880 g     O .bss	00000004 _PathLocale
0000f71c g     F .text	00000014 atexit
00009070 g     F .text	0000005c _write_r
00005570 g     F .text	0000001c setlocale
00011d38 g     O .rwdata	00000004 _impure_ptr
0001389c g     O .bss	00000004 alt_argc
00004428 g     F .text	00000208 __sflush_r
0000e94c g     F .text	0000005c _do_dtors
0000555c g     F .text	00000008 __locale_cjk_lang
00000020 g       .exceptions	00000000 alt_irq_entry
00006c08 g     F .text	00000060 __ulp
00004a44 g     F .text	00000018 __fp_unlock_all
00011d4c g     O .rwdata	00000008 alt_fs_list
00000020 g       *ABS*	00000000 __ram_exceptions_start
0000558c g     F .text	0000000c localeconv
0000ea68 g     F .text	00000050 alt_ic_isr_register
00011d7c g       *ABS*	00000000 _edata
000139e0 g       *ABS*	00000000 _end
00000240 g       *ABS*	00000000 __ram_exceptions_end
0000db14 g     F .text	000000ec altera_avalon_jtag_uart_ioctl
0000eb58 g     F .text	000000a4 alt_ic_irq_disable
000078d4 g     F .text	0000007c __swrite
00011d44 g     O .rwdata	00000004 __malloc_trim_threshold
0000f3e8 g     F .text	00000020 alt_get_performance_counter_base
00005550 g     F .text	0000000c __locale_msgcharset
0000f730 g     F .text	00000038 exit
000053f4 g     F .text	000000c4 _fwalk_reent
00006a70 g     F .text	00000198 __mdiff
0000a424 g     F .text	0000005c .hidden __modsi3
01000000 g       *ABS*	00000000 __alt_data_end
00000020 g     F .exceptions	00000000 alt_exception
00004a20 g     F .text	00000004 __sfp_lock_release
0000fafc g     F .text	00000034 _exit
0000e678 g     F .text	00000140 alt_alarm_start
00005598 g     F .text	000001b8 __smakebuf_r
000008e4 g     F .text	00000098 strlen
0000ef8c g     F .text	00000158 open
0000b67c g     F .text	000000e0 .hidden __gedf2
00011d48 g     O .rwdata	00000004 __wctomb
00007b54 g     F .text	00000018 __sprint_r
0000ea38 g     F .text	00000030 alt_icache_flush_all
00011d70 g     O .rwdata	00000004 alt_priority_mask
0000eab8 g     F .text	000000a0 alt_ic_irq_enable
000028cc g     F .text	00000024 __vfprintf_internal
0000e144 g     F .text	00000024 altera_avalon_mutex_close
000097b8 g     F .text	0000005c _wctomb_r
0000bf60 g     F .text	000008d0 .hidden __subdf3
00006498 g     F .text	000000b0 __lo0bits
00011d74 g     O .rwdata	00000008 alt_alarm_list
0000e8f0 g     F .text	0000005c _do_ctors
000096c8 g     F .text	000000c0 wcrtomb
0000cae0 g     F .text	000000d0 close
0000ce34 g     F .text	00000080 alt_load
0000946c g     F .text	0000005c fputwc
00000000  w      *UND*	00000000 free
00004a24 g     F .text	00000004 __sinit_lock_acquire
0000620c g     F .text	00000120 __multadd
000061e4 g     F .text	00000028 _Bfree



Disassembly of section .entry:

00000000 <__reset>:
#if NIOS2_ICACHE_SIZE > 0 && defined(ALT_ALLOW_CODE_AT_RESET) && (!defined(ALT_SIM_OPTIMIZE) || defined(NIOS2_ECC_PRESENT))
    /* Assume the instruction cache size is always a power of two. */
#if NIOS2_ICACHE_SIZE > 0x8000
    movhi r2, %hi(NIOS2_ICACHE_SIZE)
#else
    movui r2, NIOS2_ICACHE_SIZE
   0:	00880014 	movui	r2,8192
#endif

0:
    initi r2
   4:	1001483a 	initi	r2
    addi r2, r2, -NIOS2_ICACHE_LINE_SIZE
   8:	10bff804 	addi	r2,r2,-32
    bgt r2, zero, 0b
   c:	00bffd16 	blt	zero,r2,4 <__alt_mem_onchip_memory2_0+0xfbfe0004>
 * Jump to the _start entry point in the .text section if reset code
 * is allowed or if optimizing for RTL simulation.
 */
#if defined(ALT_ALLOW_CODE_AT_RESET) || defined(ALT_SIM_OPTIMIZE)
    /* Jump to the _start entry point in the .text section. */
    movhi r1, %hi(_start)
  10:	00400034 	movhi	at,0
    ori r1, r1, %lo(_start)
  14:	08409014 	ori	at,at,576
    jmp r1
  18:	0800683a 	jmp	at
  1c:	00000000 	call	0 <__reset>

Disassembly of section .exceptions:

00000020 <alt_exception>:

#else /* ALT_EXCEPTION_STACK disabled */
        /* 
         * Reserve space on normal stack for registers about to be pushed.
         */
        addi  sp, sp, -76
  20:	deffed04 	addi	sp,sp,-76
         * documentation for details).
         *
         * Leave a gap in the stack frame at 4(sp) for the muldiv handler to
         * store zero into.
         */
        stw   ra,  0(sp)
  24:	dfc00015 	stw	ra,0(sp)
        stw   r1,   8(sp)
  28:	d8400215 	stw	at,8(sp)
        stw   r2,  12(sp)
  2c:	d8800315 	stw	r2,12(sp)
        stw   r3,  16(sp)
  30:	d8c00415 	stw	r3,16(sp)
        stw   r4,  20(sp)
  34:	d9000515 	stw	r4,20(sp)
        stw   r5,  24(sp)
  38:	d9400615 	stw	r5,24(sp)
        stw   r6,  28(sp)
  3c:	d9800715 	stw	r6,28(sp)
        stw   r7,  32(sp)
  40:	d9c00815 	stw	r7,32(sp)
        rdctl r5, estatus   /* Read early to avoid usage stall */
  44:	000b307a 	rdctl	r5,estatus
        stw   r8,  36(sp)
  48:	da000915 	stw	r8,36(sp)
        stw   r9,  40(sp)
  4c:	da400a15 	stw	r9,40(sp)
        stw   r10, 44(sp)
  50:	da800b15 	stw	r10,44(sp)
        stw   r11, 48(sp)
  54:	dac00c15 	stw	r11,48(sp)
        stw   r12, 52(sp)
  58:	db000d15 	stw	r12,52(sp)
        stw   r13, 56(sp)
  5c:	db400e15 	stw	r13,56(sp)
        stw   r14, 60(sp)
  60:	db800f15 	stw	r14,60(sp)
        stw   r15, 64(sp)
  64:	dbc01015 	stw	r15,64(sp)
        /*
         * ea-4 contains the address of the instruction being executed
         * when the exception occured. For interrupt exceptions, we will
         * will be re-issue the isntruction. Store it in 72(sp)
         */
        stw   r5,  68(sp)  /* estatus */
  68:	d9401115 	stw	r5,68(sp)
        addi  r15, ea, -4  /* instruction that caused exception */
  6c:	ebffff04 	addi	r15,ea,-4
        stw   r15,  72(sp)
  70:	dbc01215 	stw	r15,72(sp)
#else
        /*
         * Test to see if the exception was a software exception or caused 
         * by an external interrupt, and vector accordingly.
         */
        rdctl r4, ipending
  74:	0009313a 	rdctl	r4,ipending
        andi  r2, r5, 1
  78:	2880004c 	andi	r2,r5,1
        beq   r2, zero, .Lnot_irq
  7c:	10000326 	beq	r2,zero,8c <alt_exception+0x6c>
        beq   r4, zero, .Lnot_irq
  80:	20000226 	beq	r4,zero,8c <alt_exception+0x6c>
        /*
         * Now that all necessary registers have been preserved, call 
         * alt_irq_handler() to process the interrupts.
         */

        call alt_irq_handler
  84:	00000fc0 	call	fc <alt_irq_handler>

        .section .exceptions.irqreturn, "xa"

        br    .Lexception_exit
  88:	00000706 	br	a8 <alt_exception+0x88>
         * upon completion, so we write ea (address of instruction *after*
         * the one where the exception occured) into 72(sp). The actual
         * instruction that caused the exception is written in r2, which these
         * handlers will utilize.
         */
        stw   ea,  72(sp)  /* Don't re-issue */
  8c:	df401215 	stw	ea,72(sp)
        ldhu.n  r2, 0(r4)
        ldhu.n  r3, 2(r4)
        slli.n  r3, r3, 16
        or.n    r2, r2, r3 /* Instruction that caused exception */
#else
        ldw   r2, -4(ea)   /* Instruction that caused exception */
  90:	e8bfff17 	ldw	r2,-4(ea)
         * debugger is present) or go into an infinite loop since the
         * handling behavior is undefined; in that case we will not return here.
         */

        /* Load exception-causing address as first argument (r4) */
        addi   r4, ea, -4
  94:	e93fff04 	addi	r4,ea,-4

        /* Call the instruction-exception entry */
        call   alt_instruction_exception_entry
  98:	00001cc0 	call	1cc <alt_instruction_exception_entry>
         * instruction
         *
         * Return code was 0: Skip. The instruction after the exception is
         * already stored in 72(sp).
         */
        bne   r2, r0, .Lexception_exit
  9c:	1000021e 	bne	r2,zero,a8 <alt_exception+0x88>

        /*
         * Otherwise, modify 72(sp) to re-issue the instruction that caused the
         * exception.
         */
        addi  r15, ea, -4  /* instruction that caused exception */
  a0:	ebffff04 	addi	r15,ea,-4
        stw   r15,  72(sp)
  a4:	dbc01215 	stw	r15,72(sp)
        /* 
         * Restore the saved registers, so that all general purpose registers 
         * have been restored to their state at the time the interrupt occured.
         */

        ldw   r5,  68(sp)
  a8:	d9401117 	ldw	r5,68(sp)
        ldw   ea,  72(sp)  /* This becomes the PC once eret is executed */
  ac:	df401217 	ldw	ea,72(sp)
        ldw   ra,   0(sp)
  b0:	dfc00017 	ldw	ra,0(sp)

        wrctl estatus, r5
  b4:	2801707a 	wrctl	estatus,r5

        ldw   r1,   8(sp)
  b8:	d8400217 	ldw	at,8(sp)
        ldw   r2,  12(sp)
  bc:	d8800317 	ldw	r2,12(sp)
        ldw   r3,  16(sp)
  c0:	d8c00417 	ldw	r3,16(sp)
        ldw   r4,  20(sp)
  c4:	d9000517 	ldw	r4,20(sp)
        ldw   r5,  24(sp)
  c8:	d9400617 	ldw	r5,24(sp)
        ldw   r6,  28(sp)
  cc:	d9800717 	ldw	r6,28(sp)
        ldw   r7,  32(sp)
  d0:	d9c00817 	ldw	r7,32(sp)

#if defined(ALT_EXCEPTION_STACK) && defined(ALT_STACK_CHECK)
        ldw   et, %gprel(alt_exception_old_stack_limit)(gp)
#endif

        ldw   r8,  36(sp)
  d4:	da000917 	ldw	r8,36(sp)
        ldw   r9,  40(sp)
  d8:	da400a17 	ldw	r9,40(sp)
        ldw   r10, 44(sp)
  dc:	da800b17 	ldw	r10,44(sp)
        ldw   r11, 48(sp)
  e0:	dac00c17 	ldw	r11,48(sp)
        ldw   r12, 52(sp)
  e4:	db000d17 	ldw	r12,52(sp)
        ldw   r13, 56(sp)
  e8:	db400e17 	ldw	r13,56(sp)
        ldw   r14, 60(sp)
  ec:	db800f17 	ldw	r14,60(sp)
        ldw   r15, 64(sp)
  f0:	dbc01017 	ldw	r15,64(sp)
        stw   et, %gprel(alt_stack_limit_value)(gp)
        stw   zero, %gprel(alt_exception_old_stack_limit)(gp)
#endif /* ALT_STACK_CHECK */
        ldw   sp,  76(sp)
#else /* ALT_EXCEPTION_STACK disabled */
        addi  sp, sp, 76
  f4:	dec01304 	addi	sp,sp,76

        /*
         * Return to the interrupted instruction.
         */

        eret
  f8:	ef80083a 	eret

000000fc <alt_irq_handler>:
 * instruction is present if the macro ALT_CI_INTERRUPT_VECTOR defined.
 */

void alt_irq_handler (void) __attribute__ ((section (".exceptions")));
void alt_irq_handler (void)
{
  fc:	defff904 	addi	sp,sp,-28
 100:	dfc00615 	stw	ra,24(sp)
 104:	df000515 	stw	fp,20(sp)
 108:	df000504 	addi	fp,sp,20
  
  /*
   * Notify the operating system that we are at interrupt level.
   */ 
  
  ALT_OS_INT_ENTER();
 10c:	0001883a 	nop
#ifndef NIOS2_EIC_PRESENT
static ALT_INLINE alt_u32 ALT_ALWAYS_INLINE alt_irq_pending (void)
{
  alt_u32 active;

  NIOS2_READ_IPENDING (active);
 110:	0005313a 	rdctl	r2,ipending
 114:	e0bffe15 	stw	r2,-8(fp)

  return active;
 118:	e0bffe17 	ldw	r2,-8(fp)
   * Consider the case where the high priority interupt is asserted during
   * the interrupt entry sequence for a lower priority interrupt to see why
   * this is the case.
   */

  active = alt_irq_pending ();
 11c:	e0bffb15 	stw	r2,-20(fp)

  do
  {
    i = 0;
 120:	e03ffd15 	stw	zero,-12(fp)
    mask = 1;
 124:	00800044 	movi	r2,1
 128:	e0bffc15 	stw	r2,-16(fp)
     * called to clear the interrupt condition.
     */

    do
    {
      if (active & mask)
 12c:	e0fffb17 	ldw	r3,-20(fp)
 130:	e0bffc17 	ldw	r2,-16(fp)
 134:	1884703a 	and	r2,r3,r2
 138:	10001426 	beq	r2,zero,18c <alt_irq_handler+0x90>
      { 
#ifdef ALT_ENHANCED_INTERRUPT_API_PRESENT
        alt_irq[i].handler(alt_irq[i].context); 
 13c:	00800074 	movhi	r2,1
 140:	108e3804 	addi	r2,r2,14560
 144:	e0fffd17 	ldw	r3,-12(fp)
 148:	180690fa 	slli	r3,r3,3
 14c:	10c5883a 	add	r2,r2,r3
 150:	10c00017 	ldw	r3,0(r2)
 154:	00800074 	movhi	r2,1
 158:	108e3804 	addi	r2,r2,14560
 15c:	e13ffd17 	ldw	r4,-12(fp)
 160:	200890fa 	slli	r4,r4,3
 164:	21000104 	addi	r4,r4,4
 168:	1105883a 	add	r2,r2,r4
 16c:	10800017 	ldw	r2,0(r2)
 170:	1009883a 	mov	r4,r2
 174:	183ee83a 	callr	r3
#else
        alt_irq[i].handler(alt_irq[i].context, i); 
#endif
        break;
 178:	0001883a 	nop
#ifndef NIOS2_EIC_PRESENT
static ALT_INLINE alt_u32 ALT_ALWAYS_INLINE alt_irq_pending (void)
{
  alt_u32 active;

  NIOS2_READ_IPENDING (active);
 17c:	0005313a 	rdctl	r2,ipending
 180:	e0bfff15 	stw	r2,-4(fp)

  return active;
 184:	e0bfff17 	ldw	r2,-4(fp)
 188:	00000706 	br	1a8 <alt_irq_handler+0xac>
      }
      mask <<= 1;
 18c:	e0bffc17 	ldw	r2,-16(fp)
 190:	1085883a 	add	r2,r2,r2
 194:	e0bffc15 	stw	r2,-16(fp)
      i++;
 198:	e0bffd17 	ldw	r2,-12(fp)
 19c:	10800044 	addi	r2,r2,1
 1a0:	e0bffd15 	stw	r2,-12(fp)

    } while (1);
 1a4:	003fe106 	br	12c <__alt_mem_onchip_memory2_0+0xfbfe012c>

    active = alt_irq_pending ();
 1a8:	e0bffb15 	stw	r2,-20(fp)
    
  } while (active);
 1ac:	e0bffb17 	ldw	r2,-20(fp)
 1b0:	103fdb1e 	bne	r2,zero,120 <__alt_mem_onchip_memory2_0+0xfbfe0120>

  /*
   * Notify the operating system that interrupt processing is complete.
   */ 

  ALT_OS_INT_EXIT();
 1b4:	0001883a 	nop
}
 1b8:	e037883a 	mov	sp,fp
 1bc:	dfc00117 	ldw	ra,4(sp)
 1c0:	df000017 	ldw	fp,0(sp)
 1c4:	dec00204 	addi	sp,sp,8
 1c8:	f800283a 	ret

000001cc <alt_instruction_exception_entry>:
 * that handler if it has been registered. Absent a handler, it will
 * break break or hang as discussed below.
 */
int 
alt_instruction_exception_entry (alt_u32 exception_pc)
{
 1cc:	defffb04 	addi	sp,sp,-20
 1d0:	dfc00415 	stw	ra,16(sp)
 1d4:	df000315 	stw	fp,12(sp)
 1d8:	df000304 	addi	fp,sp,12
 1dc:	e13fff15 	stw	r4,-4(fp)
 * NIOS2_EXCEPTION_CAUSE_NOT_PRESENT. Your handling routine should
 * check the validity of the cause argument before proceeding.
 */
#ifdef NIOS2_HAS_EXTRA_EXCEPTION_INFO
  /* Get exception cause & "badaddr" */
  NIOS2_READ_EXCEPTION(cause);
 1e0:	000531fa 	rdctl	r2,exception
 1e4:	e0bffd15 	stw	r2,-12(fp)
  cause = ( (cause & NIOS2_EXCEPTION_REG_CAUSE_MASK) >>
 1e8:	e0bffd17 	ldw	r2,-12(fp)
 1ec:	10801f0c 	andi	r2,r2,124
 1f0:	1004d0ba 	srli	r2,r2,2
 1f4:	e0bffd15 	stw	r2,-12(fp)
              NIOS2_EXCEPTION_REG_CAUSE_OFST );

  NIOS2_READ_BADADDR(badaddr);
 1f8:	0005333a 	rdctl	r2,badaddr
 1fc:	e0bffe15 	stw	r2,-8(fp)
#else
  cause = NIOS2_EXCEPTION_CAUSE_NOT_PRESENT;
  badaddr = 0;
#endif /* NIOS2_HAS_EXTRA_EXCEPTION_INFO */

  if(alt_instruction_exception_handler) {
 200:	d0a6e017 	ldw	r2,-25728(gp)
 204:	10000726 	beq	r2,zero,224 <alt_instruction_exception_entry+0x58>
     * Call handler. Its return value indicates whether the exception-causing
     * instruction should be re-issued. The code that called us,
     * alt_eceptions_entry.S, will look at this value and adjust the ea
     * register as necessary
     */
    return alt_instruction_exception_handler(cause, exception_pc, badaddr);
 208:	d0a6e017 	ldw	r2,-25728(gp)
 20c:	e0fffd17 	ldw	r3,-12(fp)
 210:	1809883a 	mov	r4,r3
 214:	e17fff17 	ldw	r5,-4(fp)
 218:	e1bffe17 	ldw	r6,-8(fp)
 21c:	103ee83a 	callr	r2
 220:	00000206 	br	22c <alt_instruction_exception_entry+0x60>
   *    (a peripheral which negates its interrupt output before its
   *    interrupt handler has been executed will cause spurious interrupts)
   */
  else {
#ifdef NIOS2_HAS_DEBUG_STUB
    NIOS2_BREAK();
 224:	003da03a 	break	0
      ;
#endif /* NIOS2_HAS_DEBUG_STUB */
  }

  /* We should not get here. Remove compiler warning. */
  return NIOS2_EXCEPTION_RETURN_REISSUE_INST;
 228:	0005883a 	mov	r2,zero
}
 22c:	e037883a 	mov	sp,fp
 230:	dfc00117 	ldw	ra,4(sp)
 234:	df000017 	ldw	fp,0(sp)
 238:	dec00204 	addi	sp,sp,8
 23c:	f800283a 	ret

Disassembly of section .text:

00000240 <_start>:

    /* Assume the data cache size is always a power of two. */
#if NIOS2_DCACHE_SIZE > 0x8000
    movhi r2, %hi(NIOS2_DCACHE_SIZE)
#else
    movui r2, NIOS2_DCACHE_SIZE
     240:	00840014 	movui	r2,4096
#endif

0:
    initd 0(r2)
     244:	10000033 	initd	0(r2)
#ifdef NIOS2_ECC_PRESENT
    addi r2, r2, -4
#else
    addi r2, r2, -NIOS2_DCACHE_LINE_SIZE
     248:	10bff804 	addi	r2,r2,-32
#endif
    bgt r2, zero, 0b
     24c:	00bffd16 	blt	zero,r2,244 <__alt_mem_onchip_memory2_0+0xfbfe0244>

    /*
     * Now that the caches are initialized, set up the stack pointer and global pointer.
     * The values provided by the linker are assumed to be correctly aligned.
     */
    movhi sp, %hi(__alt_stack_pointer)
     250:	06c04034 	movhi	sp,256
    ori sp, sp, %lo(__alt_stack_pointer)
     254:	dec00014 	ori	sp,sp,0
    movhi gp, %hi(_gp)
     258:	06800074 	movhi	gp,1
    ori gp, gp, %lo(_gp)
     25c:	d6a74d14 	ori	gp,gp,40244
 */
#ifndef ALT_SIM_OPTIMIZE
    /* Log that the BSS is about to be cleared. */
    ALT_LOG_PUTS(alt_log_msg_bss)

    movhi r2, %hi(__bss_start)
     260:	00800074 	movhi	r2,1
    ori r2, r2, %lo(__bss_start)
     264:	108e2014 	ori	r2,r2,14464

    movhi r3, %hi(__bss_end)
     268:	00c00074 	movhi	r3,1
    ori r3, r3, %lo(__bss_end)
     26c:	18ce7814 	ori	r3,r3,14816

    beq r2, r3, 1f
     270:	10c00326 	beq	r2,r3,280 <_start+0x40>

0:
    stw zero, (r2)
     274:	10000015 	stw	zero,0(r2)
    addi r2, r2, 4
     278:	10800104 	addi	r2,r2,4
    bltu r2, r3, 0b
     27c:	10fffd36 	bltu	r2,r3,274 <__alt_mem_onchip_memory2_0+0xfbfe0274>
     * section aren't defined until alt_load() has been called).
     */
    mov   et, zero
#endif

    call alt_load
     280:	000ce340 	call	ce34 <alt_load>

    /* Log that alt_main is about to be called. */
    ALT_LOG_PUTS(alt_log_msg_alt_main)

    /* Call the C entry point. It should never return. */
    call alt_main
     284:	000cfd80 	call	cfd8 <alt_main>

00000288 <alt_after_alt_main>:

    /* Wait in infinite loop in case alt_main does return. */
alt_after_alt_main:
    br alt_after_alt_main
     288:	003fff06 	br	288 <__alt_mem_onchip_memory2_0+0xfbfe0288>

0000028c <main>:
    int status_start;
    int status_done;
}   shared_mem_struct;

int main()
{
     28c:	defecd04 	addi	sp,sp,-1228
     290:	dfc13215 	stw	ra,1224(sp)
     294:	df013115 	stw	fp,1220(sp)
     298:	df013104 	addi	fp,sp,1220
    printf("Hello\n");
     29c:	01000074 	movhi	r4,1
     2a0:	213ecc04 	addi	r4,r4,-1232
     2a4:	00008d00 	call	8d0 <puts>
   //initialize the message buffer location
   shared_mem_struct *message;
   message = (shared_mem_struct*)shared_mem;
     2a8:	008100b4 	movhi	r2,1026
     2ac:	e0bed015 	stw	r2,-1216(fp)

  volatile int i,j,k; //i = row, j = column,

  int count;
  int M1[10][10]={  0,0,0,0,0,0,0,0,0,0,
     2b0:	00800074 	movhi	r2,1
     2b4:	10bed504 	addi	r2,r2,-1196
     2b8:	e0fed404 	addi	r3,fp,-1200
     2bc:	100b883a 	mov	r5,r2
     2c0:	00806404 	movi	r2,400
     2c4:	1809883a 	mov	r4,r3
     2c8:	100d883a 	mov	r6,r2
     2cc:	00005440 	call	544 <memcpy>
                    32,32,33,34,32,32,33,34,32,32,
                    32,32,33,34,32,32,33,34,32,32,
                    32,32,33,34,32,32,33,34,32,32,
                    19,32,33,34,32,32,33,34,32,32};

  int M2[10][10]={  32,32,33,34,32,32,33,34,32,32,
     2d0:	00800074 	movhi	r2,1
     2d4:	10bf3904 	addi	r2,r2,-796
     2d8:	e0ff3804 	addi	r3,fp,-800
     2dc:	100b883a 	mov	r5,r2
     2e0:	00806404 	movi	r2,400
     2e4:	1809883a 	mov	r4,r3
     2e8:	100d883a 	mov	r6,r2
     2ec:	00005440 	call	544 <memcpy>
                    19,32,33,34,32,32,33,34,32,32,
                    32,32,33,34,32,32,33,34,32,32,
                    32,32,33,34,32,32,33,34,32,32,
                    32,32,33,34,32,32,33,34,32,32,
                    19,32,33,34,32,32,33,34,32,32};
  int C[10][10]= {0};
     2f0:	e0ff9c04 	addi	r3,fp,-400
     2f4:	00806404 	movi	r2,400
     2f8:	1809883a 	mov	r4,r3
     2fc:	000b883a 	mov	r5,zero
     300:	100d883a 	mov	r6,r2
     304:	000067c0 	call	67c <memset>

  for( i=0; i<10; i++)
     308:	e03ed115 	stw	zero,-1212(fp)
     30c:	00003206 	br	3d8 <main+0x14c>
  {
    for (j=0; j<10; j++)
     310:	e03ed215 	stw	zero,-1208(fp)
     314:	00002a06 	br	3c0 <main+0x134>
    {
        (message)->M1s[i][j]=M1[i][j];
     318:	e1bed117 	ldw	r6,-1212(fp)
     31c:	e17ed217 	ldw	r5,-1208(fp)
     320:	e0fed117 	ldw	r3,-1212(fp)
     324:	e0bed217 	ldw	r2,-1208(fp)
     328:	18c002a4 	muli	r3,r3,10
     32c:	1885883a 	add	r2,r3,r2
     330:	1085883a 	add	r2,r2,r2
     334:	1085883a 	add	r2,r2,r2
     338:	e0fed004 	addi	r3,fp,-1216
     33c:	1885883a 	add	r2,r3,r2
     340:	10800404 	addi	r2,r2,16
     344:	10c00017 	ldw	r3,0(r2)
     348:	e13ed017 	ldw	r4,-1216(fp)
     34c:	308002a4 	muli	r2,r6,10
     350:	1145883a 	add	r2,r2,r5
     354:	1085883a 	add	r2,r2,r2
     358:	1085883a 	add	r2,r2,r2
     35c:	2085883a 	add	r2,r4,r2
     360:	10c00015 	stw	r3,0(r2)
        (message)->M2s[i][j]=M2[i][j];
     364:	e1bed117 	ldw	r6,-1212(fp)
     368:	e17ed217 	ldw	r5,-1208(fp)
     36c:	e0fed117 	ldw	r3,-1212(fp)
     370:	e0bed217 	ldw	r2,-1208(fp)
     374:	18c002a4 	muli	r3,r3,10
     378:	1885883a 	add	r2,r3,r2
     37c:	1085883a 	add	r2,r2,r2
     380:	1085883a 	add	r2,r2,r2
     384:	e0fed004 	addi	r3,fp,-1216
     388:	1885883a 	add	r2,r3,r2
     38c:	10806804 	addi	r2,r2,416
     390:	10c00017 	ldw	r3,0(r2)
     394:	e13ed017 	ldw	r4,-1216(fp)
     398:	308002a4 	muli	r2,r6,10
     39c:	1145883a 	add	r2,r2,r5
     3a0:	10801904 	addi	r2,r2,100
     3a4:	1085883a 	add	r2,r2,r2
     3a8:	1085883a 	add	r2,r2,r2
     3ac:	2085883a 	add	r2,r4,r2
     3b0:	10c00015 	stw	r3,0(r2)
                    19,32,33,34,32,32,33,34,32,32};
  int C[10][10]= {0};

  for( i=0; i<10; i++)
  {
    for (j=0; j<10; j++)
     3b4:	e0bed217 	ldw	r2,-1208(fp)
     3b8:	10800044 	addi	r2,r2,1
     3bc:	e0bed215 	stw	r2,-1208(fp)
     3c0:	e0bed217 	ldw	r2,-1208(fp)
     3c4:	10800290 	cmplti	r2,r2,10
     3c8:	103fd31e 	bne	r2,zero,318 <__alt_mem_onchip_memory2_0+0xfbfe0318>
                    32,32,33,34,32,32,33,34,32,32,
                    32,32,33,34,32,32,33,34,32,32,
                    19,32,33,34,32,32,33,34,32,32};
  int C[10][10]= {0};

  for( i=0; i<10; i++)
     3cc:	e0bed117 	ldw	r2,-1212(fp)
     3d0:	10800044 	addi	r2,r2,1
     3d4:	e0bed115 	stw	r2,-1212(fp)
     3d8:	e0bed117 	ldw	r2,-1212(fp)
     3dc:	10800290 	cmplti	r2,r2,10
     3e0:	103fcb1e 	bne	r2,zero,310 <__alt_mem_onchip_memory2_0+0xfbfe0310>
        (message)->M1s[i][j]=M1[i][j];
        (message)->M2s[i][j]=M2[i][j];
    }
  }

  (message)->status_start=1;
     3e4:	e0bed017 	ldw	r2,-1216(fp)
     3e8:	00c00044 	movi	r3,1
     3ec:	10c12c15 	stw	r3,1200(r2)
  (message)->status_done=1;
     3f0:	e0bed017 	ldw	r2,-1216(fp)
     3f4:	00c00044 	movi	r3,1
     3f8:	10c12d15 	stw	r3,1204(r2)

  PERF_RESET (PERFORMANCE_COUNTER_BASE);            //Reset Performance Counters to 0
     3fc:	00c00044 	movi	r3,1
     400:	00810034 	movhi	r2,1024
     404:	10840004 	addi	r2,r2,4096
     408:	10c00035 	stwio	r3,0(r2)
  PERF_START_MEASURING (PERFORMANCE_COUNTER_BASE);  //Start the Counter
     40c:	0007883a 	mov	r3,zero
     410:	00810034 	movhi	r2,1024
     414:	10840104 	addi	r2,r2,4100
     418:	10c00035 	stwio	r3,0(r2)
  PERF_BEGIN (PERFORMANCE_COUNTER_BASE,2);          //Start the overhead counter
     41c:	0007883a 	mov	r3,zero
     420:	00810034 	movhi	r2,1024
     424:	10840904 	addi	r2,r2,4132
     428:	10c00035 	stwio	r3,0(r2)
   PERF_BEGIN (PERFORMANCE_COUNTER_BASE,1);          //Start the Matrix Multiplication Counter
     42c:	0007883a 	mov	r3,zero
     430:	00810034 	movhi	r2,1024
     434:	10840504 	addi	r2,r2,4116
     438:	10c00035 	stwio	r3,0(r2)
  PERF_END (PERFORMANCE_COUNTER_BASE,2);            //Stop the overhead counter
     43c:	0007883a 	mov	r3,zero
     440:	00810034 	movhi	r2,1024
     444:	10840804 	addi	r2,r2,4128
     448:	10c00035 	stwio	r3,0(r2)
      }
    }
  }
  */
    //CPU stops the performance_count and print performance_count result and matrix C from 1000th iteration on the terminal.
  while((message)->status_done!=3) ;
     44c:	0001883a 	nop
     450:	e0bed017 	ldw	r2,-1216(fp)
     454:	10812d17 	ldw	r2,1204(r2)
     458:	108000d8 	cmpnei	r2,r2,3
     45c:	103ffc1e 	bne	r2,zero,450 <__alt_mem_onchip_memory2_0+0xfbfe0450>
  for (i=0;i<=9;i++)
     460:	e03ed115 	stw	zero,-1212(fp)
     464:	00001b06 	br	4d4 <main+0x248>
    {
        for(j=0;j<9;j++)
     468:	e03ed215 	stw	zero,-1208(fp)
     46c:	00001106 	br	4b4 <main+0x228>
        {
            printf("%d ",(message)->Cs[i][j]);
     470:	e13ed117 	ldw	r4,-1212(fp)
     474:	e0bed217 	ldw	r2,-1208(fp)
     478:	e0fed017 	ldw	r3,-1216(fp)
     47c:	210002a4 	muli	r4,r4,10
     480:	2085883a 	add	r2,r4,r2
     484:	10803204 	addi	r2,r2,200
     488:	1085883a 	add	r2,r2,r2
     48c:	1085883a 	add	r2,r2,r2
     490:	1885883a 	add	r2,r3,r2
     494:	10800017 	ldw	r2,0(r2)
     498:	01000074 	movhi	r4,1
     49c:	213ece04 	addi	r4,r4,-1224
     4a0:	100b883a 	mov	r5,r2
     4a4:	00007cc0 	call	7cc <printf>
  */
    //CPU stops the performance_count and print performance_count result and matrix C from 1000th iteration on the terminal.
  while((message)->status_done!=3) ;
  for (i=0;i<=9;i++)
    {
        for(j=0;j<9;j++)
     4a8:	e0bed217 	ldw	r2,-1208(fp)
     4ac:	10800044 	addi	r2,r2,1
     4b0:	e0bed215 	stw	r2,-1208(fp)
     4b4:	e0bed217 	ldw	r2,-1208(fp)
     4b8:	10800250 	cmplti	r2,r2,9
     4bc:	103fec1e 	bne	r2,zero,470 <__alt_mem_onchip_memory2_0+0xfbfe0470>
        {
            printf("%d ",(message)->Cs[i][j]);
        }
        printf("\n");
     4c0:	01000284 	movi	r4,10
     4c4:	00008100 	call	810 <putchar>
    }
  }
  */
    //CPU stops the performance_count and print performance_count result and matrix C from 1000th iteration on the terminal.
  while((message)->status_done!=3) ;
  for (i=0;i<=9;i++)
     4c8:	e0bed117 	ldw	r2,-1212(fp)
     4cc:	10800044 	addi	r2,r2,1
     4d0:	e0bed115 	stw	r2,-1212(fp)
     4d4:	e0bed117 	ldw	r2,-1212(fp)
     4d8:	10800290 	cmplti	r2,r2,10
     4dc:	103fe21e 	bne	r2,zero,468 <__alt_mem_onchip_memory2_0+0xfbfe0468>
            printf("%d ",(message)->Cs[i][j]);
        }
        printf("\n");
    }

  PERF_END (PERFORMANCE_COUNTER_BASE,1);            //Stop the Matrix Multiplication Counter
     4e0:	0007883a 	mov	r3,zero
     4e4:	00810034 	movhi	r2,1024
     4e8:	10840404 	addi	r2,r2,4112
     4ec:	10c00035 	stwio	r3,0(r2)
  PERF_STOP_MEASURING (PERFORMANCE_COUNTER_BASE);   //Stop all counters
     4f0:	0007883a 	mov	r3,zero
     4f4:	00810034 	movhi	r2,1024
     4f8:	10840004 	addi	r2,r2,4096
     4fc:	10c00035 	stwio	r3,0(r2)

  perf_print_formatted_report((void *)PERFORMANCE_COUNTER_BASE, ALT_CPU_FREQ, 2,
     500:	00800074 	movhi	r2,1
     504:	10bed204 	addi	r2,r2,-1208
     508:	d8800015 	stw	r2,0(sp)
     50c:	01010034 	movhi	r4,1024
     510:	21040004 	addi	r4,r4,4096
     514:	014221b4 	movhi	r5,2182
     518:	29407004 	addi	r5,r5,448
     51c:	01800084 	movi	r6,2
     520:	01c00074 	movhi	r7,1
     524:	39fecf04 	addi	r7,r7,-1220
     528:	000e3f80 	call	e3f8 <perf_print_formatted_report>
  "1000 loops","PC overhead");

  return 0;
     52c:	0005883a 	mov	r2,zero
}
     530:	e037883a 	mov	sp,fp
     534:	dfc00117 	ldw	ra,4(sp)
     538:	df000017 	ldw	fp,0(sp)
     53c:	dec00204 	addi	sp,sp,8
     540:	f800283a 	ret

00000544 <memcpy>:
     544:	deffff04 	addi	sp,sp,-4
     548:	dc000015 	stw	r16,0(sp)
     54c:	00c003c4 	movi	r3,15
     550:	2005883a 	mov	r2,r4
     554:	1980432e 	bgeu	r3,r6,664 <memcpy+0x120>
     558:	2146b03a 	or	r3,r4,r5
     55c:	18c000cc 	andi	r3,r3,3
     560:	1800421e 	bne	r3,zero,66c <memcpy+0x128>
     564:	343ffc04 	addi	r16,r6,-16
     568:	8020d13a 	srli	r16,r16,4
     56c:	28c00104 	addi	r3,r5,4
     570:	23400104 	addi	r13,r4,4
     574:	801e913a 	slli	r15,r16,4
     578:	2b000204 	addi	r12,r5,8
     57c:	22c00204 	addi	r11,r4,8
     580:	7bc00504 	addi	r15,r15,20
     584:	2a800304 	addi	r10,r5,12
     588:	22400304 	addi	r9,r4,12
     58c:	2bdf883a 	add	r15,r5,r15
     590:	2811883a 	mov	r8,r5
     594:	200f883a 	mov	r7,r4
     598:	41000017 	ldw	r4,0(r8)
     59c:	39c00404 	addi	r7,r7,16
     5a0:	18c00404 	addi	r3,r3,16
     5a4:	393ffc15 	stw	r4,-16(r7)
     5a8:	1bbffc17 	ldw	r14,-16(r3)
     5ac:	6b400404 	addi	r13,r13,16
     5b0:	5ac00404 	addi	r11,r11,16
     5b4:	6bbffc15 	stw	r14,-16(r13)
     5b8:	63800017 	ldw	r14,0(r12)
     5bc:	4a400404 	addi	r9,r9,16
     5c0:	42000404 	addi	r8,r8,16
     5c4:	5bbffc15 	stw	r14,-16(r11)
     5c8:	53800017 	ldw	r14,0(r10)
     5cc:	63000404 	addi	r12,r12,16
     5d0:	52800404 	addi	r10,r10,16
     5d4:	4bbffc15 	stw	r14,-16(r9)
     5d8:	1bffef1e 	bne	r3,r15,598 <__alt_mem_onchip_memory2_0+0xfbfe0598>
     5dc:	81c00044 	addi	r7,r16,1
     5e0:	380e913a 	slli	r7,r7,4
     5e4:	310003cc 	andi	r4,r6,15
     5e8:	02c000c4 	movi	r11,3
     5ec:	11c7883a 	add	r3,r2,r7
     5f0:	29cb883a 	add	r5,r5,r7
     5f4:	59001f2e 	bgeu	r11,r4,674 <memcpy+0x130>
     5f8:	1813883a 	mov	r9,r3
     5fc:	2811883a 	mov	r8,r5
     600:	200f883a 	mov	r7,r4
     604:	42800017 	ldw	r10,0(r8)
     608:	4a400104 	addi	r9,r9,4
     60c:	39ffff04 	addi	r7,r7,-4
     610:	4abfff15 	stw	r10,-4(r9)
     614:	42000104 	addi	r8,r8,4
     618:	59fffa36 	bltu	r11,r7,604 <__alt_mem_onchip_memory2_0+0xfbfe0604>
     61c:	213fff04 	addi	r4,r4,-4
     620:	2008d0ba 	srli	r4,r4,2
     624:	318000cc 	andi	r6,r6,3
     628:	21000044 	addi	r4,r4,1
     62c:	2109883a 	add	r4,r4,r4
     630:	2109883a 	add	r4,r4,r4
     634:	1907883a 	add	r3,r3,r4
     638:	290b883a 	add	r5,r5,r4
     63c:	30000626 	beq	r6,zero,658 <memcpy+0x114>
     640:	198d883a 	add	r6,r3,r6
     644:	29c00003 	ldbu	r7,0(r5)
     648:	18c00044 	addi	r3,r3,1
     64c:	29400044 	addi	r5,r5,1
     650:	19ffffc5 	stb	r7,-1(r3)
     654:	19bffb1e 	bne	r3,r6,644 <__alt_mem_onchip_memory2_0+0xfbfe0644>
     658:	dc000017 	ldw	r16,0(sp)
     65c:	dec00104 	addi	sp,sp,4
     660:	f800283a 	ret
     664:	2007883a 	mov	r3,r4
     668:	003ff406 	br	63c <__alt_mem_onchip_memory2_0+0xfbfe063c>
     66c:	2007883a 	mov	r3,r4
     670:	003ff306 	br	640 <__alt_mem_onchip_memory2_0+0xfbfe0640>
     674:	200d883a 	mov	r6,r4
     678:	003ff006 	br	63c <__alt_mem_onchip_memory2_0+0xfbfe063c>

0000067c <memset>:
     67c:	20c000cc 	andi	r3,r4,3
     680:	2005883a 	mov	r2,r4
     684:	18004326 	beq	r3,zero,794 <memset+0x118>
     688:	31ffffc4 	addi	r7,r6,-1
     68c:	30004026 	beq	r6,zero,790 <memset+0x114>
     690:	2813883a 	mov	r9,r5
     694:	200d883a 	mov	r6,r4
     698:	2007883a 	mov	r3,r4
     69c:	00000406 	br	6b0 <memset+0x34>
     6a0:	3a3fffc4 	addi	r8,r7,-1
     6a4:	31800044 	addi	r6,r6,1
     6a8:	38003926 	beq	r7,zero,790 <memset+0x114>
     6ac:	400f883a 	mov	r7,r8
     6b0:	18c00044 	addi	r3,r3,1
     6b4:	32400005 	stb	r9,0(r6)
     6b8:	1a0000cc 	andi	r8,r3,3
     6bc:	403ff81e 	bne	r8,zero,6a0 <__alt_mem_onchip_memory2_0+0xfbfe06a0>
     6c0:	010000c4 	movi	r4,3
     6c4:	21c02d2e 	bgeu	r4,r7,77c <memset+0x100>
     6c8:	29803fcc 	andi	r6,r5,255
     6cc:	3008923a 	slli	r4,r6,8
     6d0:	218cb03a 	or	r6,r4,r6
     6d4:	3008943a 	slli	r4,r6,16
     6d8:	218cb03a 	or	r6,r4,r6
     6dc:	010003c4 	movi	r4,15
     6e0:	21c0182e 	bgeu	r4,r7,744 <memset+0xc8>
     6e4:	3b3ffc04 	addi	r12,r7,-16
     6e8:	6018d13a 	srli	r12,r12,4
     6ec:	1a000104 	addi	r8,r3,4
     6f0:	1ac00204 	addi	r11,r3,8
     6f4:	6008913a 	slli	r4,r12,4
     6f8:	1a800304 	addi	r10,r3,12
     6fc:	1813883a 	mov	r9,r3
     700:	21000504 	addi	r4,r4,20
     704:	1909883a 	add	r4,r3,r4
     708:	49800015 	stw	r6,0(r9)
     70c:	41800015 	stw	r6,0(r8)
     710:	59800015 	stw	r6,0(r11)
     714:	51800015 	stw	r6,0(r10)
     718:	42000404 	addi	r8,r8,16
     71c:	4a400404 	addi	r9,r9,16
     720:	5ac00404 	addi	r11,r11,16
     724:	52800404 	addi	r10,r10,16
     728:	413ff71e 	bne	r8,r4,708 <__alt_mem_onchip_memory2_0+0xfbfe0708>
     72c:	63000044 	addi	r12,r12,1
     730:	6018913a 	slli	r12,r12,4
     734:	39c003cc 	andi	r7,r7,15
     738:	010000c4 	movi	r4,3
     73c:	1b07883a 	add	r3,r3,r12
     740:	21c00e2e 	bgeu	r4,r7,77c <memset+0x100>
     744:	1813883a 	mov	r9,r3
     748:	3811883a 	mov	r8,r7
     74c:	010000c4 	movi	r4,3
     750:	49800015 	stw	r6,0(r9)
     754:	423fff04 	addi	r8,r8,-4
     758:	4a400104 	addi	r9,r9,4
     75c:	223ffc36 	bltu	r4,r8,750 <__alt_mem_onchip_memory2_0+0xfbfe0750>
     760:	393fff04 	addi	r4,r7,-4
     764:	2008d0ba 	srli	r4,r4,2
     768:	39c000cc 	andi	r7,r7,3
     76c:	21000044 	addi	r4,r4,1
     770:	2109883a 	add	r4,r4,r4
     774:	2109883a 	add	r4,r4,r4
     778:	1907883a 	add	r3,r3,r4
     77c:	38000426 	beq	r7,zero,790 <memset+0x114>
     780:	19cf883a 	add	r7,r3,r7
     784:	19400005 	stb	r5,0(r3)
     788:	18c00044 	addi	r3,r3,1
     78c:	19fffd1e 	bne	r3,r7,784 <__alt_mem_onchip_memory2_0+0xfbfe0784>
     790:	f800283a 	ret
     794:	2007883a 	mov	r3,r4
     798:	300f883a 	mov	r7,r6
     79c:	003fc806 	br	6c0 <__alt_mem_onchip_memory2_0+0xfbfe06c0>

000007a0 <_printf_r>:
     7a0:	defffd04 	addi	sp,sp,-12
     7a4:	dfc00015 	stw	ra,0(sp)
     7a8:	d9800115 	stw	r6,4(sp)
     7ac:	d9c00215 	stw	r7,8(sp)
     7b0:	280d883a 	mov	r6,r5
     7b4:	21400217 	ldw	r5,8(r4)
     7b8:	d9c00104 	addi	r7,sp,4
     7bc:	000097c0 	call	97c <___vfprintf_internal_r>
     7c0:	dfc00017 	ldw	ra,0(sp)
     7c4:	dec00304 	addi	sp,sp,12
     7c8:	f800283a 	ret

000007cc <printf>:
     7cc:	defffc04 	addi	sp,sp,-16
     7d0:	dfc00015 	stw	ra,0(sp)
     7d4:	d9400115 	stw	r5,4(sp)
     7d8:	d9800215 	stw	r6,8(sp)
     7dc:	d9c00315 	stw	r7,12(sp)
     7e0:	00800074 	movhi	r2,1
     7e4:	10874e04 	addi	r2,r2,7480
     7e8:	10800017 	ldw	r2,0(r2)
     7ec:	200b883a 	mov	r5,r4
     7f0:	d9800104 	addi	r6,sp,4
     7f4:	11000217 	ldw	r4,8(r2)
     7f8:	00028cc0 	call	28cc <__vfprintf_internal>
     7fc:	dfc00017 	ldw	ra,0(sp)
     800:	dec00404 	addi	sp,sp,16
     804:	f800283a 	ret

00000808 <_putchar_r>:
     808:	21800217 	ldw	r6,8(r4)
     80c:	00070dc1 	jmpi	70dc <_putc_r>

00000810 <putchar>:
     810:	00800074 	movhi	r2,1
     814:	10874e04 	addi	r2,r2,7480
     818:	200b883a 	mov	r5,r4
     81c:	11000017 	ldw	r4,0(r2)
     820:	21800217 	ldw	r6,8(r4)
     824:	00070dc1 	jmpi	70dc <_putc_r>

00000828 <_puts_r>:
     828:	defff604 	addi	sp,sp,-40
     82c:	dc000715 	stw	r16,28(sp)
     830:	2021883a 	mov	r16,r4
     834:	2809883a 	mov	r4,r5
     838:	dc400815 	stw	r17,32(sp)
     83c:	dfc00915 	stw	ra,36(sp)
     840:	2823883a 	mov	r17,r5
     844:	00008e40 	call	8e4 <strlen>
     848:	81400217 	ldw	r5,8(r16)
     84c:	11000044 	addi	r4,r2,1
     850:	d8800115 	stw	r2,4(sp)
     854:	00800074 	movhi	r2,1
     858:	2980030b 	ldhu	r6,12(r5)
     85c:	10bf9d04 	addi	r2,r2,-396
     860:	d8800215 	stw	r2,8(sp)
     864:	00800044 	movi	r2,1
     868:	d8800315 	stw	r2,12(sp)
     86c:	00800084 	movi	r2,2
     870:	d8800515 	stw	r2,20(sp)
     874:	dc400015 	stw	r17,0(sp)
     878:	d9000615 	stw	r4,24(sp)
     87c:	dec00415 	stw	sp,16(sp)
     880:	3088000c 	andi	r2,r6,8192
     884:	1000061e 	bne	r2,zero,8a0 <_puts_r+0x78>
     888:	29001917 	ldw	r4,100(r5)
     88c:	00b7ffc4 	movi	r2,-8193
     890:	31880014 	ori	r6,r6,8192
     894:	2084703a 	and	r2,r4,r2
     898:	2980030d 	sth	r6,12(r5)
     89c:	28801915 	stw	r2,100(r5)
     8a0:	8009883a 	mov	r4,r16
     8a4:	d9800404 	addi	r6,sp,16
     8a8:	0004e700 	call	4e70 <__sfvwrite_r>
     8ac:	1000061e 	bne	r2,zero,8c8 <_puts_r+0xa0>
     8b0:	00800284 	movi	r2,10
     8b4:	dfc00917 	ldw	ra,36(sp)
     8b8:	dc400817 	ldw	r17,32(sp)
     8bc:	dc000717 	ldw	r16,28(sp)
     8c0:	dec00a04 	addi	sp,sp,40
     8c4:	f800283a 	ret
     8c8:	00bfffc4 	movi	r2,-1
     8cc:	003ff906 	br	8b4 <__alt_mem_onchip_memory2_0+0xfbfe08b4>

000008d0 <puts>:
     8d0:	00800074 	movhi	r2,1
     8d4:	10874e04 	addi	r2,r2,7480
     8d8:	200b883a 	mov	r5,r4
     8dc:	11000017 	ldw	r4,0(r2)
     8e0:	00008281 	jmpi	828 <_puts_r>

000008e4 <strlen>:
     8e4:	208000cc 	andi	r2,r4,3
     8e8:	10002026 	beq	r2,zero,96c <strlen+0x88>
     8ec:	20800007 	ldb	r2,0(r4)
     8f0:	10002026 	beq	r2,zero,974 <strlen+0x90>
     8f4:	2005883a 	mov	r2,r4
     8f8:	00000206 	br	904 <strlen+0x20>
     8fc:	10c00007 	ldb	r3,0(r2)
     900:	18001826 	beq	r3,zero,964 <strlen+0x80>
     904:	10800044 	addi	r2,r2,1
     908:	10c000cc 	andi	r3,r2,3
     90c:	183ffb1e 	bne	r3,zero,8fc <__alt_mem_onchip_memory2_0+0xfbfe08fc>
     910:	10c00017 	ldw	r3,0(r2)
     914:	01ffbff4 	movhi	r7,65279
     918:	39ffbfc4 	addi	r7,r7,-257
     91c:	00ca303a 	nor	r5,zero,r3
     920:	01a02074 	movhi	r6,32897
     924:	19c7883a 	add	r3,r3,r7
     928:	31a02004 	addi	r6,r6,-32640
     92c:	1946703a 	and	r3,r3,r5
     930:	1986703a 	and	r3,r3,r6
     934:	1800091e 	bne	r3,zero,95c <strlen+0x78>
     938:	10800104 	addi	r2,r2,4
     93c:	10c00017 	ldw	r3,0(r2)
     940:	19cb883a 	add	r5,r3,r7
     944:	00c6303a 	nor	r3,zero,r3
     948:	28c6703a 	and	r3,r5,r3
     94c:	1986703a 	and	r3,r3,r6
     950:	183ff926 	beq	r3,zero,938 <__alt_mem_onchip_memory2_0+0xfbfe0938>
     954:	00000106 	br	95c <strlen+0x78>
     958:	10800044 	addi	r2,r2,1
     95c:	10c00007 	ldb	r3,0(r2)
     960:	183ffd1e 	bne	r3,zero,958 <__alt_mem_onchip_memory2_0+0xfbfe0958>
     964:	1105c83a 	sub	r2,r2,r4
     968:	f800283a 	ret
     96c:	2005883a 	mov	r2,r4
     970:	003fe706 	br	910 <__alt_mem_onchip_memory2_0+0xfbfe0910>
     974:	0005883a 	mov	r2,zero
     978:	f800283a 	ret

0000097c <___vfprintf_internal_r>:
     97c:	deffb604 	addi	sp,sp,-296
     980:	dfc04915 	stw	ra,292(sp)
     984:	ddc04715 	stw	r23,284(sp)
     988:	dd804615 	stw	r22,280(sp)
     98c:	282f883a 	mov	r23,r5
     990:	202d883a 	mov	r22,r4
     994:	d9802a15 	stw	r6,168(sp)
     998:	d9c02d15 	stw	r7,180(sp)
     99c:	df004815 	stw	fp,288(sp)
     9a0:	dd404515 	stw	r21,276(sp)
     9a4:	dd004415 	stw	r20,272(sp)
     9a8:	dcc04315 	stw	r19,268(sp)
     9ac:	dc804215 	stw	r18,264(sp)
     9b0:	dc404115 	stw	r17,260(sp)
     9b4:	dc004015 	stw	r16,256(sp)
     9b8:	00055640 	call	5564 <_localeconv_r>
     9bc:	10800017 	ldw	r2,0(r2)
     9c0:	1009883a 	mov	r4,r2
     9c4:	d8803515 	stw	r2,212(sp)
     9c8:	00008e40 	call	8e4 <strlen>
     9cc:	d8803815 	stw	r2,224(sp)
     9d0:	b0000226 	beq	r22,zero,9dc <___vfprintf_internal_r+0x60>
     9d4:	b0800e17 	ldw	r2,56(r22)
     9d8:	1000e126 	beq	r2,zero,d60 <___vfprintf_internal_r+0x3e4>
     9dc:	b880030b 	ldhu	r2,12(r23)
     9e0:	10c8000c 	andi	r3,r2,8192
     9e4:	1800061e 	bne	r3,zero,a00 <___vfprintf_internal_r+0x84>
     9e8:	b9001917 	ldw	r4,100(r23)
     9ec:	00f7ffc4 	movi	r3,-8193
     9f0:	10880014 	ori	r2,r2,8192
     9f4:	20c6703a 	and	r3,r4,r3
     9f8:	b880030d 	sth	r2,12(r23)
     9fc:	b8c01915 	stw	r3,100(r23)
     a00:	10c0020c 	andi	r3,r2,8
     a04:	1800a726 	beq	r3,zero,ca4 <___vfprintf_internal_r+0x328>
     a08:	b8c00417 	ldw	r3,16(r23)
     a0c:	1800a526 	beq	r3,zero,ca4 <___vfprintf_internal_r+0x328>
     a10:	1080068c 	andi	r2,r2,26
     a14:	00c00284 	movi	r3,10
     a18:	10c0aa26 	beq	r2,r3,cc4 <___vfprintf_internal_r+0x348>
     a1c:	dac01e04 	addi	r11,sp,120
     a20:	db001dc4 	addi	r12,sp,119
     a24:	d8800404 	addi	r2,sp,16
     a28:	05000074 	movhi	r20,1
     a2c:	dac02815 	stw	r11,160(sp)
     a30:	5b17c83a 	sub	r11,r11,r12
     a34:	a53fae84 	addi	r20,r20,-326
     a38:	db002915 	stw	r12,164(sp)
     a3c:	d8801e15 	stw	r2,120(sp)
     a40:	d8002015 	stw	zero,128(sp)
     a44:	d8001f15 	stw	zero,124(sp)
     a48:	d8003315 	stw	zero,204(sp)
     a4c:	d8003715 	stw	zero,220(sp)
     a50:	d8003915 	stw	zero,228(sp)
     a54:	1011883a 	mov	r8,r2
     a58:	d8003b15 	stw	zero,236(sp)
     a5c:	d8003a15 	stw	zero,232(sp)
     a60:	d8002f15 	stw	zero,188(sp)
     a64:	dac03c15 	stw	r11,240(sp)
     a68:	db002a17 	ldw	r12,168(sp)
     a6c:	60800007 	ldb	r2,0(r12)
     a70:	1000be26 	beq	r2,zero,d6c <___vfprintf_internal_r+0x3f0>
     a74:	00c00944 	movi	r3,37
     a78:	10c0bc26 	beq	r2,r3,d6c <___vfprintf_internal_r+0x3f0>
     a7c:	6021883a 	mov	r16,r12
     a80:	00000106 	br	a88 <___vfprintf_internal_r+0x10c>
     a84:	10c08426 	beq	r2,r3,c98 <___vfprintf_internal_r+0x31c>
     a88:	84000044 	addi	r16,r16,1
     a8c:	80800007 	ldb	r2,0(r16)
     a90:	103ffc1e 	bne	r2,zero,a84 <__alt_mem_onchip_memory2_0+0xfbfe0a84>
     a94:	dac02a17 	ldw	r11,168(sp)
     a98:	82e3c83a 	sub	r17,r16,r11
     a9c:	88000f26 	beq	r17,zero,adc <___vfprintf_internal_r+0x160>
     aa0:	d8c02017 	ldw	r3,128(sp)
     aa4:	d8801f17 	ldw	r2,124(sp)
     aa8:	dac02a17 	ldw	r11,168(sp)
     aac:	1c47883a 	add	r3,r3,r17
     ab0:	10800044 	addi	r2,r2,1
     ab4:	d8c02015 	stw	r3,128(sp)
     ab8:	42c00015 	stw	r11,0(r8)
     abc:	44400115 	stw	r17,4(r8)
     ac0:	d8801f15 	stw	r2,124(sp)
     ac4:	00c001c4 	movi	r3,7
     ac8:	18809316 	blt	r3,r2,d18 <___vfprintf_internal_r+0x39c>
     acc:	42000204 	addi	r8,r8,8
     ad0:	db002f17 	ldw	r12,188(sp)
     ad4:	6459883a 	add	r12,r12,r17
     ad8:	db002f15 	stw	r12,188(sp)
     adc:	80800007 	ldb	r2,0(r16)
     ae0:	10009426 	beq	r2,zero,d34 <___vfprintf_internal_r+0x3b8>
     ae4:	80800044 	addi	r2,r16,1
     ae8:	84000047 	ldb	r16,1(r16)
     aec:	d8002785 	stb	zero,158(sp)
     af0:	000d883a 	mov	r6,zero
     af4:	027fffc4 	movi	r9,-1
     af8:	d8002e15 	stw	zero,184(sp)
     afc:	0023883a 	mov	r17,zero
     b00:	01001604 	movi	r4,88
     b04:	01400244 	movi	r5,9
     b08:	02800a84 	movi	r10,42
     b0c:	01c01b04 	movi	r7,108
     b10:	10c00044 	addi	r3,r2,1
     b14:	80bff804 	addi	r2,r16,-32
     b18:	2082cd36 	bltu	r4,r2,1650 <___vfprintf_internal_r+0xcd4>
     b1c:	100490ba 	slli	r2,r2,2
     b20:	02c00034 	movhi	r11,0
     b24:	5ac2cd04 	addi	r11,r11,2868
     b28:	12c5883a 	add	r2,r2,r11
     b2c:	10800017 	ldw	r2,0(r2)
     b30:	1000683a 	jmp	r2
     b34:	00001468 	cmpgeui	zero,zero,81
     b38:	00001650 	cmplti	zero,zero,89
     b3c:	00001650 	cmplti	zero,zero,89
     b40:	000015b8 	rdprs	zero,zero,86
     b44:	00001650 	cmplti	zero,zero,89
     b48:	00001650 	cmplti	zero,zero,89
     b4c:	00001650 	cmplti	zero,zero,89
     b50:	00001650 	cmplti	zero,zero,89
     b54:	00001650 	cmplti	zero,zero,89
     b58:	00001650 	cmplti	zero,zero,89
     b5c:	00001488 	cmpgei	zero,zero,82
     b60:	000014b4 	movhi	zero,82
     b64:	00001650 	cmplti	zero,zero,89
     b68:	00000d74 	movhi	zero,53
     b6c:	00000d84 	movi	zero,54
     b70:	00001650 	cmplti	zero,zero,89
     b74:	00000dc4 	movi	zero,55
     b78:	00000dd4 	movui	zero,55
     b7c:	00000dd4 	movui	zero,55
     b80:	00000dd4 	movui	zero,55
     b84:	00000dd4 	movui	zero,55
     b88:	00000dd4 	movui	zero,55
     b8c:	00000dd4 	movui	zero,55
     b90:	00000dd4 	movui	zero,55
     b94:	00000dd4 	movui	zero,55
     b98:	00000dd4 	movui	zero,55
     b9c:	00001650 	cmplti	zero,zero,89
     ba0:	00001650 	cmplti	zero,zero,89
     ba4:	00001650 	cmplti	zero,zero,89
     ba8:	00001650 	cmplti	zero,zero,89
     bac:	00001650 	cmplti	zero,zero,89
     bb0:	00001650 	cmplti	zero,zero,89
     bb4:	00001650 	cmplti	zero,zero,89
     bb8:	00001650 	cmplti	zero,zero,89
     bbc:	00001650 	cmplti	zero,zero,89
     bc0:	00001650 	cmplti	zero,zero,89
     bc4:	00000e08 	cmpgei	zero,zero,56
     bc8:	00001278 	rdprs	zero,zero,73
     bcc:	00001650 	cmplti	zero,zero,89
     bd0:	00001278 	rdprs	zero,zero,73
     bd4:	00001650 	cmplti	zero,zero,89
     bd8:	00001650 	cmplti	zero,zero,89
     bdc:	00001650 	cmplti	zero,zero,89
     be0:	00001650 	cmplti	zero,zero,89
     be4:	00001364 	muli	zero,zero,77
     be8:	00001650 	cmplti	zero,zero,89
     bec:	00001650 	cmplti	zero,zero,89
     bf0:	0000120c 	andi	zero,zero,72
     bf4:	00001650 	cmplti	zero,zero,89
     bf8:	00001650 	cmplti	zero,zero,89
     bfc:	00001650 	cmplti	zero,zero,89
     c00:	00001650 	cmplti	zero,zero,89
     c04:	00001650 	cmplti	zero,zero,89
     c08:	00001248 	cmpgei	zero,zero,73
     c0c:	00001650 	cmplti	zero,zero,89
     c10:	00001650 	cmplti	zero,zero,89
     c14:	0000140c 	andi	zero,zero,80
     c18:	00001650 	cmplti	zero,zero,89
     c1c:	00001650 	cmplti	zero,zero,89
     c20:	00001650 	cmplti	zero,zero,89
     c24:	00001650 	cmplti	zero,zero,89
     c28:	00001650 	cmplti	zero,zero,89
     c2c:	00001650 	cmplti	zero,zero,89
     c30:	00001650 	cmplti	zero,zero,89
     c34:	00001650 	cmplti	zero,zero,89
     c38:	00001650 	cmplti	zero,zero,89
     c3c:	00001650 	cmplti	zero,zero,89
     c40:	000014c4 	movi	zero,83
     c44:	00001374 	movhi	zero,77
     c48:	00001278 	rdprs	zero,zero,73
     c4c:	00001278 	rdprs	zero,zero,73
     c50:	00001278 	rdprs	zero,zero,73
     c54:	000013b4 	movhi	zero,78
     c58:	00001374 	movhi	zero,77
     c5c:	00001650 	cmplti	zero,zero,89
     c60:	00001650 	cmplti	zero,zero,89
     c64:	000013c4 	movi	zero,79
     c68:	00001650 	cmplti	zero,zero,89
     c6c:	000013d8 	cmpnei	zero,zero,79
     c70:	00001614 	movui	zero,88
     c74:	0000131c 	xori	zero,zero,76
     c78:	000015c8 	cmpgei	zero,zero,87
     c7c:	00001650 	cmplti	zero,zero,89
     c80:	00001504 	movi	zero,84
     c84:	00001650 	cmplti	zero,zero,89
     c88:	000015d8 	cmpnei	zero,zero,87
     c8c:	00001650 	cmplti	zero,zero,89
     c90:	00001650 	cmplti	zero,zero,89
     c94:	00001578 	rdprs	zero,zero,85
     c98:	db002a17 	ldw	r12,168(sp)
     c9c:	8323c83a 	sub	r17,r16,r12
     ca0:	003f7e06 	br	a9c <__alt_mem_onchip_memory2_0+0xfbfe0a9c>
     ca4:	b009883a 	mov	r4,r22
     ca8:	b80b883a 	mov	r5,r23
     cac:	00029ac0 	call	29ac <__swsetup_r>
     cb0:	10000c1e 	bne	r2,zero,ce4 <___vfprintf_internal_r+0x368>
     cb4:	b880030b 	ldhu	r2,12(r23)
     cb8:	00c00284 	movi	r3,10
     cbc:	1080068c 	andi	r2,r2,26
     cc0:	10ff561e 	bne	r2,r3,a1c <__alt_mem_onchip_memory2_0+0xfbfe0a1c>
     cc4:	b880038f 	ldh	r2,14(r23)
     cc8:	103f5416 	blt	r2,zero,a1c <__alt_mem_onchip_memory2_0+0xfbfe0a1c>
     ccc:	d9802a17 	ldw	r6,168(sp)
     cd0:	d9c02d17 	ldw	r7,180(sp)
     cd4:	b009883a 	mov	r4,r22
     cd8:	b80b883a 	mov	r5,r23
     cdc:	00028f00 	call	28f0 <__sbprintf>
     ce0:	00000106 	br	ce8 <___vfprintf_internal_r+0x36c>
     ce4:	00bfffc4 	movi	r2,-1
     ce8:	dfc04917 	ldw	ra,292(sp)
     cec:	df004817 	ldw	fp,288(sp)
     cf0:	ddc04717 	ldw	r23,284(sp)
     cf4:	dd804617 	ldw	r22,280(sp)
     cf8:	dd404517 	ldw	r21,276(sp)
     cfc:	dd004417 	ldw	r20,272(sp)
     d00:	dcc04317 	ldw	r19,268(sp)
     d04:	dc804217 	ldw	r18,264(sp)
     d08:	dc404117 	ldw	r17,260(sp)
     d0c:	dc004017 	ldw	r16,256(sp)
     d10:	dec04a04 	addi	sp,sp,296
     d14:	f800283a 	ret
     d18:	b009883a 	mov	r4,r22
     d1c:	b80b883a 	mov	r5,r23
     d20:	d9801e04 	addi	r6,sp,120
     d24:	0007b540 	call	7b54 <__sprint_r>
     d28:	1000081e 	bne	r2,zero,d4c <___vfprintf_internal_r+0x3d0>
     d2c:	da000404 	addi	r8,sp,16
     d30:	003f6706 	br	ad0 <__alt_mem_onchip_memory2_0+0xfbfe0ad0>
     d34:	d8802017 	ldw	r2,128(sp)
     d38:	10000426 	beq	r2,zero,d4c <___vfprintf_internal_r+0x3d0>
     d3c:	b009883a 	mov	r4,r22
     d40:	b80b883a 	mov	r5,r23
     d44:	d9801e04 	addi	r6,sp,120
     d48:	0007b540 	call	7b54 <__sprint_r>
     d4c:	b880030b 	ldhu	r2,12(r23)
     d50:	1080100c 	andi	r2,r2,64
     d54:	103fe31e 	bne	r2,zero,ce4 <__alt_mem_onchip_memory2_0+0xfbfe0ce4>
     d58:	d8802f17 	ldw	r2,188(sp)
     d5c:	003fe206 	br	ce8 <__alt_mem_onchip_memory2_0+0xfbfe0ce8>
     d60:	b009883a 	mov	r4,r22
     d64:	0004a0c0 	call	4a0c <__sinit>
     d68:	003f1c06 	br	9dc <__alt_mem_onchip_memory2_0+0xfbfe09dc>
     d6c:	dc002a17 	ldw	r16,168(sp)
     d70:	003f5a06 	br	adc <__alt_mem_onchip_memory2_0+0xfbfe0adc>
     d74:	1805883a 	mov	r2,r3
     d78:	8c400114 	ori	r17,r17,4
     d7c:	1c000007 	ldb	r16,0(r3)
     d80:	003f6306 	br	b10 <__alt_mem_onchip_memory2_0+0xfbfe0b10>
     d84:	1c000007 	ldb	r16,0(r3)
     d88:	18800044 	addi	r2,r3,1
     d8c:	8286ad26 	beq	r16,r10,2844 <___vfprintf_internal_r+0x1ec8>
     d90:	82fff404 	addi	r11,r16,-48
     d94:	1007883a 	mov	r3,r2
     d98:	0013883a 	mov	r9,zero
     d9c:	2aff5d36 	bltu	r5,r11,b14 <__alt_mem_onchip_memory2_0+0xfbfe0b14>
     da0:	1c000007 	ldb	r16,0(r3)
     da4:	4a4002a4 	muli	r9,r9,10
     da8:	18c00044 	addi	r3,r3,1
     dac:	5a53883a 	add	r9,r11,r9
     db0:	82fff404 	addi	r11,r16,-48
     db4:	2afffa2e 	bgeu	r5,r11,da0 <__alt_mem_onchip_memory2_0+0xfbfe0da0>
     db8:	483f560e 	bge	r9,zero,b14 <__alt_mem_onchip_memory2_0+0xfbfe0b14>
     dbc:	027fffc4 	movi	r9,-1
     dc0:	003f5406 	br	b14 <__alt_mem_onchip_memory2_0+0xfbfe0b14>
     dc4:	8c402014 	ori	r17,r17,128
     dc8:	1805883a 	mov	r2,r3
     dcc:	1c000007 	ldb	r16,0(r3)
     dd0:	003f4f06 	br	b10 <__alt_mem_onchip_memory2_0+0xfbfe0b10>
     dd4:	1805883a 	mov	r2,r3
     dd8:	d8002e15 	stw	zero,184(sp)
     ddc:	82fff404 	addi	r11,r16,-48
     de0:	0019883a 	mov	r12,zero
     de4:	14000007 	ldb	r16,0(r2)
     de8:	630002a4 	muli	r12,r12,10
     dec:	18c00044 	addi	r3,r3,1
     df0:	1805883a 	mov	r2,r3
     df4:	62d9883a 	add	r12,r12,r11
     df8:	82fff404 	addi	r11,r16,-48
     dfc:	2afff92e 	bgeu	r5,r11,de4 <__alt_mem_onchip_memory2_0+0xfbfe0de4>
     e00:	db002e15 	stw	r12,184(sp)
     e04:	003f4306 	br	b14 <__alt_mem_onchip_memory2_0+0xfbfe0b14>
     e08:	8c400414 	ori	r17,r17,16
     e0c:	d8c02a15 	stw	r3,168(sp)
     e10:	d9802785 	stb	r6,158(sp)
     e14:	8880080c 	andi	r2,r17,32
     e18:	d8c02d17 	ldw	r3,180(sp)
     e1c:	10015a26 	beq	r2,zero,1388 <___vfprintf_internal_r+0xa0c>
     e20:	db002d17 	ldw	r12,180(sp)
     e24:	18800117 	ldw	r2,4(r3)
     e28:	1cc00017 	ldw	r19,0(r3)
     e2c:	63000204 	addi	r12,r12,8
     e30:	db002d15 	stw	r12,180(sp)
     e34:	1039883a 	mov	fp,r2
     e38:	10044516 	blt	r2,zero,1f50 <___vfprintf_internal_r+0x15d4>
     e3c:	dd402783 	ldbu	r21,158(sp)
     e40:	da403215 	stw	r9,200(sp)
     e44:	00800044 	movi	r2,1
     e48:	9f06b03a 	or	r3,r19,fp
     e4c:	48000216 	blt	r9,zero,e58 <___vfprintf_internal_r+0x4dc>
     e50:	013fdfc4 	movi	r4,-129
     e54:	8922703a 	and	r17,r17,r4
     e58:	1802071e 	bne	r3,zero,1678 <___vfprintf_internal_r+0xcfc>
     e5c:	4802fa26 	beq	r9,zero,1a48 <___vfprintf_internal_r+0x10cc>
     e60:	10803fcc 	andi	r2,r2,255
     e64:	00c00044 	movi	r3,1
     e68:	10c22926 	beq	r2,r3,1710 <___vfprintf_internal_r+0xd94>
     e6c:	00c00084 	movi	r3,2
     e70:	10c31726 	beq	r2,r3,1ad0 <___vfprintf_internal_r+0x1154>
     e74:	d8c01e04 	addi	r3,sp,120
     e78:	9808d0fa 	srli	r4,r19,3
     e7c:	e00a977a 	slli	r5,fp,29
     e80:	e038d0fa 	srli	fp,fp,3
     e84:	9cc001cc 	andi	r19,r19,7
     e88:	98800c04 	addi	r2,r19,48
     e8c:	18ffffc4 	addi	r3,r3,-1
     e90:	2926b03a 	or	r19,r5,r4
     e94:	18800005 	stb	r2,0(r3)
     e98:	9f08b03a 	or	r4,r19,fp
     e9c:	203ff61e 	bne	r4,zero,e78 <__alt_mem_onchip_memory2_0+0xfbfe0e78>
     ea0:	8900004c 	andi	r4,r17,1
     ea4:	d8c03115 	stw	r3,196(sp)
     ea8:	2003931e 	bne	r4,zero,1cf8 <___vfprintf_internal_r+0x137c>
     eac:	dac02817 	ldw	r11,160(sp)
     eb0:	58e5c83a 	sub	r18,r11,r3
     eb4:	9005883a 	mov	r2,r18
     eb8:	9240010e 	bge	r18,r9,ec0 <___vfprintf_internal_r+0x544>
     ebc:	4805883a 	mov	r2,r9
     ec0:	d8802b15 	stw	r2,172(sp)
     ec4:	d8003415 	stw	zero,208(sp)
     ec8:	a8803fcc 	andi	r2,r21,255
     ecc:	1080201c 	xori	r2,r2,128
     ed0:	10bfe004 	addi	r2,r2,-128
     ed4:	10000326 	beq	r2,zero,ee4 <___vfprintf_internal_r+0x568>
     ed8:	db002b17 	ldw	r12,172(sp)
     edc:	63000044 	addi	r12,r12,1
     ee0:	db002b15 	stw	r12,172(sp)
     ee4:	88c0008c 	andi	r3,r17,2
     ee8:	d8c02c15 	stw	r3,176(sp)
     eec:	18000326 	beq	r3,zero,efc <___vfprintf_internal_r+0x580>
     ef0:	dac02b17 	ldw	r11,172(sp)
     ef4:	5ac00084 	addi	r11,r11,2
     ef8:	dac02b15 	stw	r11,172(sp)
     efc:	8b00210c 	andi	r12,r17,132
     f00:	db003015 	stw	r12,192(sp)
     f04:	6001da1e 	bne	r12,zero,1670 <___vfprintf_internal_r+0xcf4>
     f08:	dac02e17 	ldw	r11,184(sp)
     f0c:	db002b17 	ldw	r12,172(sp)
     f10:	5b39c83a 	sub	fp,r11,r12
     f14:	0701d60e 	bge	zero,fp,1670 <___vfprintf_internal_r+0xcf4>
     f18:	02400404 	movi	r9,16
     f1c:	d8c02017 	ldw	r3,128(sp)
     f20:	d8801f17 	ldw	r2,124(sp)
     f24:	4f053c0e 	bge	r9,fp,2418 <___vfprintf_internal_r+0x1a9c>
     f28:	01400074 	movhi	r5,1
     f2c:	297fb284 	addi	r5,r5,-310
     f30:	d9403615 	stw	r5,216(sp)
     f34:	482b883a 	mov	r21,r9
     f38:	04c001c4 	movi	r19,7
     f3c:	00000306 	br	f4c <___vfprintf_internal_r+0x5d0>
     f40:	e73ffc04 	addi	fp,fp,-16
     f44:	42000204 	addi	r8,r8,8
     f48:	af00130e 	bge	r21,fp,f98 <___vfprintf_internal_r+0x61c>
     f4c:	02c00074 	movhi	r11,1
     f50:	18c00404 	addi	r3,r3,16
     f54:	10800044 	addi	r2,r2,1
     f58:	5affb284 	addi	r11,r11,-310
     f5c:	42c00015 	stw	r11,0(r8)
     f60:	45400115 	stw	r21,4(r8)
     f64:	d8c02015 	stw	r3,128(sp)
     f68:	d8801f15 	stw	r2,124(sp)
     f6c:	98bff40e 	bge	r19,r2,f40 <__alt_mem_onchip_memory2_0+0xfbfe0f40>
     f70:	b009883a 	mov	r4,r22
     f74:	b80b883a 	mov	r5,r23
     f78:	d9801e04 	addi	r6,sp,120
     f7c:	0007b540 	call	7b54 <__sprint_r>
     f80:	103f721e 	bne	r2,zero,d4c <__alt_mem_onchip_memory2_0+0xfbfe0d4c>
     f84:	e73ffc04 	addi	fp,fp,-16
     f88:	d8c02017 	ldw	r3,128(sp)
     f8c:	d8801f17 	ldw	r2,124(sp)
     f90:	da000404 	addi	r8,sp,16
     f94:	af3fed16 	blt	r21,fp,f4c <__alt_mem_onchip_memory2_0+0xfbfe0f4c>
     f98:	db003617 	ldw	r12,216(sp)
     f9c:	e0c7883a 	add	r3,fp,r3
     fa0:	10800044 	addi	r2,r2,1
     fa4:	43000015 	stw	r12,0(r8)
     fa8:	47000115 	stw	fp,4(r8)
     fac:	d8c02015 	stw	r3,128(sp)
     fb0:	d8801f15 	stw	r2,124(sp)
     fb4:	010001c4 	movi	r4,7
     fb8:	20830e16 	blt	r4,r2,1bf4 <___vfprintf_internal_r+0x1278>
     fbc:	d8802787 	ldb	r2,158(sp)
     fc0:	42000204 	addi	r8,r8,8
     fc4:	10000c26 	beq	r2,zero,ff8 <___vfprintf_internal_r+0x67c>
     fc8:	d8801f17 	ldw	r2,124(sp)
     fcc:	d9002784 	addi	r4,sp,158
     fd0:	18c00044 	addi	r3,r3,1
     fd4:	10800044 	addi	r2,r2,1
     fd8:	41000015 	stw	r4,0(r8)
     fdc:	01000044 	movi	r4,1
     fe0:	41000115 	stw	r4,4(r8)
     fe4:	d8c02015 	stw	r3,128(sp)
     fe8:	d8801f15 	stw	r2,124(sp)
     fec:	010001c4 	movi	r4,7
     ff0:	2082a716 	blt	r4,r2,1a90 <___vfprintf_internal_r+0x1114>
     ff4:	42000204 	addi	r8,r8,8
     ff8:	dac02c17 	ldw	r11,176(sp)
     ffc:	58000c26 	beq	r11,zero,1030 <___vfprintf_internal_r+0x6b4>
    1000:	d8801f17 	ldw	r2,124(sp)
    1004:	d9002704 	addi	r4,sp,156
    1008:	18c00084 	addi	r3,r3,2
    100c:	10800044 	addi	r2,r2,1
    1010:	41000015 	stw	r4,0(r8)
    1014:	01000084 	movi	r4,2
    1018:	41000115 	stw	r4,4(r8)
    101c:	d8c02015 	stw	r3,128(sp)
    1020:	d8801f15 	stw	r2,124(sp)
    1024:	010001c4 	movi	r4,7
    1028:	2082a116 	blt	r4,r2,1ab0 <___vfprintf_internal_r+0x1134>
    102c:	42000204 	addi	r8,r8,8
    1030:	db003017 	ldw	r12,192(sp)
    1034:	00802004 	movi	r2,128
    1038:	60820326 	beq	r12,r2,1848 <___vfprintf_internal_r+0xecc>
    103c:	db003217 	ldw	r12,200(sp)
    1040:	64abc83a 	sub	r21,r12,r18
    1044:	0540260e 	bge	zero,r21,10e0 <___vfprintf_internal_r+0x764>
    1048:	07000404 	movi	fp,16
    104c:	d8801f17 	ldw	r2,124(sp)
    1050:	e544570e 	bge	fp,r21,21b0 <___vfprintf_internal_r+0x1834>
    1054:	01400074 	movhi	r5,1
    1058:	297fae84 	addi	r5,r5,-326
    105c:	d9402c15 	stw	r5,176(sp)
    1060:	04c001c4 	movi	r19,7
    1064:	00000306 	br	1074 <___vfprintf_internal_r+0x6f8>
    1068:	ad7ffc04 	addi	r21,r21,-16
    106c:	42000204 	addi	r8,r8,8
    1070:	e540110e 	bge	fp,r21,10b8 <___vfprintf_internal_r+0x73c>
    1074:	18c00404 	addi	r3,r3,16
    1078:	10800044 	addi	r2,r2,1
    107c:	45000015 	stw	r20,0(r8)
    1080:	47000115 	stw	fp,4(r8)
    1084:	d8c02015 	stw	r3,128(sp)
    1088:	d8801f15 	stw	r2,124(sp)
    108c:	98bff60e 	bge	r19,r2,1068 <__alt_mem_onchip_memory2_0+0xfbfe1068>
    1090:	b009883a 	mov	r4,r22
    1094:	b80b883a 	mov	r5,r23
    1098:	d9801e04 	addi	r6,sp,120
    109c:	0007b540 	call	7b54 <__sprint_r>
    10a0:	103f2a1e 	bne	r2,zero,d4c <__alt_mem_onchip_memory2_0+0xfbfe0d4c>
    10a4:	ad7ffc04 	addi	r21,r21,-16
    10a8:	d8c02017 	ldw	r3,128(sp)
    10ac:	d8801f17 	ldw	r2,124(sp)
    10b0:	da000404 	addi	r8,sp,16
    10b4:	e57fef16 	blt	fp,r21,1074 <__alt_mem_onchip_memory2_0+0xfbfe1074>
    10b8:	dac02c17 	ldw	r11,176(sp)
    10bc:	1d47883a 	add	r3,r3,r21
    10c0:	10800044 	addi	r2,r2,1
    10c4:	42c00015 	stw	r11,0(r8)
    10c8:	45400115 	stw	r21,4(r8)
    10cc:	d8c02015 	stw	r3,128(sp)
    10d0:	d8801f15 	stw	r2,124(sp)
    10d4:	010001c4 	movi	r4,7
    10d8:	20826516 	blt	r4,r2,1a70 <___vfprintf_internal_r+0x10f4>
    10dc:	42000204 	addi	r8,r8,8
    10e0:	8880400c 	andi	r2,r17,256
    10e4:	1001901e 	bne	r2,zero,1728 <___vfprintf_internal_r+0xdac>
    10e8:	d8801f17 	ldw	r2,124(sp)
    10ec:	db003117 	ldw	r12,196(sp)
    10f0:	1c87883a 	add	r3,r3,r18
    10f4:	10800044 	addi	r2,r2,1
    10f8:	43000015 	stw	r12,0(r8)
    10fc:	44800115 	stw	r18,4(r8)
    1100:	d8c02015 	stw	r3,128(sp)
    1104:	d8801f15 	stw	r2,124(sp)
    1108:	010001c4 	movi	r4,7
    110c:	20824016 	blt	r4,r2,1a10 <___vfprintf_internal_r+0x1094>
    1110:	42000204 	addi	r8,r8,8
    1114:	8c40010c 	andi	r17,r17,4
    1118:	88003126 	beq	r17,zero,11e0 <___vfprintf_internal_r+0x864>
    111c:	db002e17 	ldw	r12,184(sp)
    1120:	dac02b17 	ldw	r11,172(sp)
    1124:	62e1c83a 	sub	r16,r12,r11
    1128:	04002d0e 	bge	zero,r16,11e0 <___vfprintf_internal_r+0x864>
    112c:	04400404 	movi	r17,16
    1130:	d8801f17 	ldw	r2,124(sp)
    1134:	8c05150e 	bge	r17,r16,258c <___vfprintf_internal_r+0x1c10>
    1138:	01000074 	movhi	r4,1
    113c:	213fb284 	addi	r4,r4,-310
    1140:	d9003615 	stw	r4,216(sp)
    1144:	048001c4 	movi	r18,7
    1148:	00000306 	br	1158 <___vfprintf_internal_r+0x7dc>
    114c:	843ffc04 	addi	r16,r16,-16
    1150:	42000204 	addi	r8,r8,8
    1154:	8c00130e 	bge	r17,r16,11a4 <___vfprintf_internal_r+0x828>
    1158:	01400074 	movhi	r5,1
    115c:	18c00404 	addi	r3,r3,16
    1160:	10800044 	addi	r2,r2,1
    1164:	297fb284 	addi	r5,r5,-310
    1168:	41400015 	stw	r5,0(r8)
    116c:	44400115 	stw	r17,4(r8)
    1170:	d8c02015 	stw	r3,128(sp)
    1174:	d8801f15 	stw	r2,124(sp)
    1178:	90bff40e 	bge	r18,r2,114c <__alt_mem_onchip_memory2_0+0xfbfe114c>
    117c:	b009883a 	mov	r4,r22
    1180:	b80b883a 	mov	r5,r23
    1184:	d9801e04 	addi	r6,sp,120
    1188:	0007b540 	call	7b54 <__sprint_r>
    118c:	103eef1e 	bne	r2,zero,d4c <__alt_mem_onchip_memory2_0+0xfbfe0d4c>
    1190:	843ffc04 	addi	r16,r16,-16
    1194:	d8c02017 	ldw	r3,128(sp)
    1198:	d8801f17 	ldw	r2,124(sp)
    119c:	da000404 	addi	r8,sp,16
    11a0:	8c3fed16 	blt	r17,r16,1158 <__alt_mem_onchip_memory2_0+0xfbfe1158>
    11a4:	dac03617 	ldw	r11,216(sp)
    11a8:	1c07883a 	add	r3,r3,r16
    11ac:	10800044 	addi	r2,r2,1
    11b0:	42c00015 	stw	r11,0(r8)
    11b4:	44000115 	stw	r16,4(r8)
    11b8:	d8c02015 	stw	r3,128(sp)
    11bc:	d8801f15 	stw	r2,124(sp)
    11c0:	010001c4 	movi	r4,7
    11c4:	2080060e 	bge	r4,r2,11e0 <___vfprintf_internal_r+0x864>
    11c8:	b009883a 	mov	r4,r22
    11cc:	b80b883a 	mov	r5,r23
    11d0:	d9801e04 	addi	r6,sp,120
    11d4:	0007b540 	call	7b54 <__sprint_r>
    11d8:	103edc1e 	bne	r2,zero,d4c <__alt_mem_onchip_memory2_0+0xfbfe0d4c>
    11dc:	d8c02017 	ldw	r3,128(sp)
    11e0:	d8802b17 	ldw	r2,172(sp)
    11e4:	db002e17 	ldw	r12,184(sp)
    11e8:	1300010e 	bge	r2,r12,11f0 <___vfprintf_internal_r+0x874>
    11ec:	6005883a 	mov	r2,r12
    11f0:	dac02f17 	ldw	r11,188(sp)
    11f4:	5897883a 	add	r11,r11,r2
    11f8:	dac02f15 	stw	r11,188(sp)
    11fc:	18020c1e 	bne	r3,zero,1a30 <___vfprintf_internal_r+0x10b4>
    1200:	d8001f15 	stw	zero,124(sp)
    1204:	da000404 	addi	r8,sp,16
    1208:	003e1706 	br	a68 <__alt_mem_onchip_memory2_0+0xfbfe0a68>
    120c:	8c400414 	ori	r17,r17,16
    1210:	d8c02a15 	stw	r3,168(sp)
    1214:	8880080c 	andi	r2,r17,32
    1218:	10010126 	beq	r2,zero,1620 <___vfprintf_internal_r+0xca4>
    121c:	db002d17 	ldw	r12,180(sp)
    1220:	0005883a 	mov	r2,zero
    1224:	64c00017 	ldw	r19,0(r12)
    1228:	67000117 	ldw	fp,4(r12)
    122c:	63000204 	addi	r12,r12,8
    1230:	db002d15 	stw	r12,180(sp)
    1234:	9f06b03a 	or	r3,r19,fp
    1238:	d8002785 	stb	zero,158(sp)
    123c:	da403215 	stw	r9,200(sp)
    1240:	002b883a 	mov	r21,zero
    1244:	003f0106 	br	e4c <__alt_mem_onchip_memory2_0+0xfbfe0e4c>
    1248:	8c400414 	ori	r17,r17,16
    124c:	d8c02a15 	stw	r3,168(sp)
    1250:	8880080c 	andi	r2,r17,32
    1254:	1000e326 	beq	r2,zero,15e4 <___vfprintf_internal_r+0xc68>
    1258:	dac02d17 	ldw	r11,180(sp)
    125c:	00800044 	movi	r2,1
    1260:	5cc00017 	ldw	r19,0(r11)
    1264:	5f000117 	ldw	fp,4(r11)
    1268:	5ac00204 	addi	r11,r11,8
    126c:	dac02d15 	stw	r11,180(sp)
    1270:	9f06b03a 	or	r3,r19,fp
    1274:	003ff006 	br	1238 <__alt_mem_onchip_memory2_0+0xfbfe1238>
    1278:	db002d17 	ldw	r12,180(sp)
    127c:	dac02d17 	ldw	r11,180(sp)
    1280:	d8c02a15 	stw	r3,168(sp)
    1284:	63000017 	ldw	r12,0(r12)
    1288:	5ac00117 	ldw	r11,4(r11)
    128c:	d9802785 	stb	r6,158(sp)
    1290:	6009883a 	mov	r4,r12
    1294:	580b883a 	mov	r5,r11
    1298:	db003715 	stw	r12,220(sp)
    129c:	da003f15 	stw	r8,252(sp)
    12a0:	da403e15 	stw	r9,248(sp)
    12a4:	dac03915 	stw	r11,228(sp)
    12a8:	00077b00 	call	77b0 <__fpclassifyd>
    12ac:	db002d17 	ldw	r12,180(sp)
    12b0:	04800044 	movi	r18,1
    12b4:	da003f17 	ldw	r8,252(sp)
    12b8:	64c00204 	addi	r19,r12,8
    12bc:	da403e17 	ldw	r9,248(sp)
    12c0:	d9003717 	ldw	r4,220(sp)
    12c4:	d9403917 	ldw	r5,228(sp)
    12c8:	14832b1e 	bne	r2,r18,1f78 <___vfprintf_internal_r+0x15fc>
    12cc:	000d883a 	mov	r6,zero
    12d0:	000f883a 	mov	r7,zero
    12d4:	000b75c0 	call	b75c <__ledf2>
    12d8:	da003f17 	ldw	r8,252(sp)
    12dc:	1004b716 	blt	r2,zero,25bc <___vfprintf_internal_r+0x1c40>
    12e0:	dd402783 	ldbu	r21,158(sp)
    12e4:	008011c4 	movi	r2,71
    12e8:	14040e0e 	bge	r2,r16,2324 <___vfprintf_internal_r+0x19a8>
    12ec:	00c00074 	movhi	r3,1
    12f0:	18ff9f04 	addi	r3,r3,-388
    12f4:	d8c03115 	stw	r3,196(sp)
    12f8:	02c000c4 	movi	r11,3
    12fc:	00bfdfc4 	movi	r2,-129
    1300:	dac02b15 	stw	r11,172(sp)
    1304:	88a2703a 	and	r17,r17,r2
    1308:	dcc02d15 	stw	r19,180(sp)
    130c:	5825883a 	mov	r18,r11
    1310:	d8003215 	stw	zero,200(sp)
    1314:	d8003415 	stw	zero,208(sp)
    1318:	003eeb06 	br	ec8 <__alt_mem_onchip_memory2_0+0xfbfe0ec8>
    131c:	db002d17 	ldw	r12,180(sp)
    1320:	00800c04 	movi	r2,48
    1324:	d8802705 	stb	r2,156(sp)
    1328:	64c00017 	ldw	r19,0(r12)
    132c:	00801e04 	movi	r2,120
    1330:	d8802745 	stb	r2,157(sp)
    1334:	00800074 	movhi	r2,1
    1338:	10bfa704 	addi	r2,r2,-356
    133c:	63000104 	addi	r12,r12,4
    1340:	d8c02a15 	stw	r3,168(sp)
    1344:	d8803b15 	stw	r2,236(sp)
    1348:	0039883a 	mov	fp,zero
    134c:	8c400094 	ori	r17,r17,2
    1350:	db002d15 	stw	r12,180(sp)
    1354:	00800084 	movi	r2,2
    1358:	04001e04 	movi	r16,120
    135c:	9807883a 	mov	r3,r19
    1360:	003fb506 	br	1238 <__alt_mem_onchip_memory2_0+0xfbfe1238>
    1364:	8c400214 	ori	r17,r17,8
    1368:	1805883a 	mov	r2,r3
    136c:	1c000007 	ldb	r16,0(r3)
    1370:	003de706 	br	b10 <__alt_mem_onchip_memory2_0+0xfbfe0b10>
    1374:	d8c02a15 	stw	r3,168(sp)
    1378:	d9802785 	stb	r6,158(sp)
    137c:	8880080c 	andi	r2,r17,32
    1380:	d8c02d17 	ldw	r3,180(sp)
    1384:	103ea61e 	bne	r2,zero,e20 <__alt_mem_onchip_memory2_0+0xfbfe0e20>
    1388:	8880040c 	andi	r2,r17,16
    138c:	1002221e 	bne	r2,zero,1c18 <___vfprintf_internal_r+0x129c>
    1390:	8880100c 	andi	r2,r17,64
    1394:	10022026 	beq	r2,zero,1c18 <___vfprintf_internal_r+0x129c>
    1398:	1cc0000f 	ldh	r19,0(r3)
    139c:	db002d17 	ldw	r12,180(sp)
    13a0:	9839d7fa 	srai	fp,r19,31
    13a4:	63000104 	addi	r12,r12,4
    13a8:	db002d15 	stw	r12,180(sp)
    13ac:	e005883a 	mov	r2,fp
    13b0:	003ea106 	br	e38 <__alt_mem_onchip_memory2_0+0xfbfe0e38>
    13b4:	8c401014 	ori	r17,r17,64
    13b8:	1805883a 	mov	r2,r3
    13bc:	1c000007 	ldb	r16,0(r3)
    13c0:	003dd306 	br	b10 <__alt_mem_onchip_memory2_0+0xfbfe0b10>
    13c4:	1c000007 	ldb	r16,0(r3)
    13c8:	81c3e926 	beq	r16,r7,2370 <___vfprintf_internal_r+0x19f4>
    13cc:	8c400414 	ori	r17,r17,16
    13d0:	1805883a 	mov	r2,r3
    13d4:	003dce06 	br	b10 <__alt_mem_onchip_memory2_0+0xfbfe0b10>
    13d8:	d8c02a15 	stw	r3,168(sp)
    13dc:	d9802785 	stb	r6,158(sp)
    13e0:	8880080c 	andi	r2,r17,32
    13e4:	10034726 	beq	r2,zero,2104 <___vfprintf_internal_r+0x1788>
    13e8:	db002d17 	ldw	r12,180(sp)
    13ec:	dac02f17 	ldw	r11,188(sp)
    13f0:	60800017 	ldw	r2,0(r12)
    13f4:	5807d7fa 	srai	r3,r11,31
    13f8:	63000104 	addi	r12,r12,4
    13fc:	db002d15 	stw	r12,180(sp)
    1400:	12c00015 	stw	r11,0(r2)
    1404:	10c00115 	stw	r3,4(r2)
    1408:	003d9706 	br	a68 <__alt_mem_onchip_memory2_0+0xfbfe0a68>
    140c:	03000074 	movhi	r12,1
    1410:	633fa204 	addi	r12,r12,-376
    1414:	d8c02a15 	stw	r3,168(sp)
    1418:	d9802785 	stb	r6,158(sp)
    141c:	db003b15 	stw	r12,236(sp)
    1420:	88c0080c 	andi	r3,r17,32
    1424:	d8802d17 	ldw	r2,180(sp)
    1428:	18005b26 	beq	r3,zero,1598 <___vfprintf_internal_r+0xc1c>
    142c:	dac02d17 	ldw	r11,180(sp)
    1430:	14c00017 	ldw	r19,0(r2)
    1434:	17000117 	ldw	fp,4(r2)
    1438:	5ac00204 	addi	r11,r11,8
    143c:	dac02d15 	stw	r11,180(sp)
    1440:	8880004c 	andi	r2,r17,1
    1444:	10022926 	beq	r2,zero,1cec <___vfprintf_internal_r+0x1370>
    1448:	9f06b03a 	or	r3,r19,fp
    144c:	18032b26 	beq	r3,zero,20fc <___vfprintf_internal_r+0x1780>
    1450:	00800c04 	movi	r2,48
    1454:	d8802705 	stb	r2,156(sp)
    1458:	dc002745 	stb	r16,157(sp)
    145c:	8c400094 	ori	r17,r17,2
    1460:	00800084 	movi	r2,2
    1464:	003f7406 	br	1238 <__alt_mem_onchip_memory2_0+0xfbfe1238>
    1468:	30803fcc 	andi	r2,r6,255
    146c:	1080201c 	xori	r2,r2,128
    1470:	10bfe004 	addi	r2,r2,-128
    1474:	1003351e 	bne	r2,zero,214c <___vfprintf_internal_r+0x17d0>
    1478:	1805883a 	mov	r2,r3
    147c:	01800804 	movi	r6,32
    1480:	1c000007 	ldb	r16,0(r3)
    1484:	003da206 	br	b10 <__alt_mem_onchip_memory2_0+0xfbfe0b10>
    1488:	dac02d17 	ldw	r11,180(sp)
    148c:	db002d17 	ldw	r12,180(sp)
    1490:	5ac00017 	ldw	r11,0(r11)
    1494:	dac02e15 	stw	r11,184(sp)
    1498:	62c00104 	addi	r11,r12,4
    149c:	db002e17 	ldw	r12,184(sp)
    14a0:	6003ad16 	blt	r12,zero,2358 <___vfprintf_internal_r+0x19dc>
    14a4:	dac02d15 	stw	r11,180(sp)
    14a8:	1805883a 	mov	r2,r3
    14ac:	1c000007 	ldb	r16,0(r3)
    14b0:	003d9706 	br	b10 <__alt_mem_onchip_memory2_0+0xfbfe0b10>
    14b4:	1805883a 	mov	r2,r3
    14b8:	01800ac4 	movi	r6,43
    14bc:	1c000007 	ldb	r16,0(r3)
    14c0:	003d9306 	br	b10 <__alt_mem_onchip_memory2_0+0xfbfe0b10>
    14c4:	db002d17 	ldw	r12,180(sp)
    14c8:	d8c02a15 	stw	r3,168(sp)
    14cc:	00c00044 	movi	r3,1
    14d0:	60800017 	ldw	r2,0(r12)
    14d4:	63000104 	addi	r12,r12,4
    14d8:	d8c02b15 	stw	r3,172(sp)
    14dc:	d8002785 	stb	zero,158(sp)
    14e0:	d8801405 	stb	r2,80(sp)
    14e4:	db002d15 	stw	r12,180(sp)
    14e8:	dac01404 	addi	r11,sp,80
    14ec:	1825883a 	mov	r18,r3
    14f0:	d8003215 	stw	zero,200(sp)
    14f4:	d8003415 	stw	zero,208(sp)
    14f8:	dac03115 	stw	r11,196(sp)
    14fc:	0005883a 	mov	r2,zero
    1500:	003e7806 	br	ee4 <__alt_mem_onchip_memory2_0+0xfbfe0ee4>
    1504:	dac02d17 	ldw	r11,180(sp)
    1508:	db002d17 	ldw	r12,180(sp)
    150c:	d8c02a15 	stw	r3,168(sp)
    1510:	5ac00017 	ldw	r11,0(r11)
    1514:	d8002785 	stb	zero,158(sp)
    1518:	64c00104 	addi	r19,r12,4
    151c:	dac03115 	stw	r11,196(sp)
    1520:	5803fe26 	beq	r11,zero,251c <___vfprintf_internal_r+0x1ba0>
    1524:	d9003117 	ldw	r4,196(sp)
    1528:	4803b416 	blt	r9,zero,23fc <___vfprintf_internal_r+0x1a80>
    152c:	480d883a 	mov	r6,r9
    1530:	000b883a 	mov	r5,zero
    1534:	da003f15 	stw	r8,252(sp)
    1538:	da403e15 	stw	r9,248(sp)
    153c:	0005ef80 	call	5ef8 <memchr>
    1540:	da003f17 	ldw	r8,252(sp)
    1544:	da403e17 	ldw	r9,248(sp)
    1548:	10043026 	beq	r2,zero,260c <___vfprintf_internal_r+0x1c90>
    154c:	d8c03117 	ldw	r3,196(sp)
    1550:	10e5c83a 	sub	r18,r2,r3
    1554:	4c836b16 	blt	r9,r18,2304 <___vfprintf_internal_r+0x1988>
    1558:	9005883a 	mov	r2,r18
    155c:	9003ac16 	blt	r18,zero,2410 <___vfprintf_internal_r+0x1a94>
    1560:	dd402783 	ldbu	r21,158(sp)
    1564:	d8802b15 	stw	r2,172(sp)
    1568:	dcc02d15 	stw	r19,180(sp)
    156c:	d8003215 	stw	zero,200(sp)
    1570:	d8003415 	stw	zero,208(sp)
    1574:	003e5406 	br	ec8 <__alt_mem_onchip_memory2_0+0xfbfe0ec8>
    1578:	00800074 	movhi	r2,1
    157c:	10bfa704 	addi	r2,r2,-356
    1580:	d8c02a15 	stw	r3,168(sp)
    1584:	d8803b15 	stw	r2,236(sp)
    1588:	d9802785 	stb	r6,158(sp)
    158c:	88c0080c 	andi	r3,r17,32
    1590:	d8802d17 	ldw	r2,180(sp)
    1594:	183fa51e 	bne	r3,zero,142c <__alt_mem_onchip_memory2_0+0xfbfe142c>
    1598:	88c0040c 	andi	r3,r17,16
    159c:	1802ee26 	beq	r3,zero,2158 <___vfprintf_internal_r+0x17dc>
    15a0:	db002d17 	ldw	r12,180(sp)
    15a4:	14c00017 	ldw	r19,0(r2)
    15a8:	0039883a 	mov	fp,zero
    15ac:	63000104 	addi	r12,r12,4
    15b0:	db002d15 	stw	r12,180(sp)
    15b4:	003fa206 	br	1440 <__alt_mem_onchip_memory2_0+0xfbfe1440>
    15b8:	8c400054 	ori	r17,r17,1
    15bc:	1805883a 	mov	r2,r3
    15c0:	1c000007 	ldb	r16,0(r3)
    15c4:	003d5206 	br	b10 <__alt_mem_onchip_memory2_0+0xfbfe0b10>
    15c8:	8c400814 	ori	r17,r17,32
    15cc:	1805883a 	mov	r2,r3
    15d0:	1c000007 	ldb	r16,0(r3)
    15d4:	003d4e06 	br	b10 <__alt_mem_onchip_memory2_0+0xfbfe0b10>
    15d8:	d8c02a15 	stw	r3,168(sp)
    15dc:	8880080c 	andi	r2,r17,32
    15e0:	103f1d1e 	bne	r2,zero,1258 <__alt_mem_onchip_memory2_0+0xfbfe1258>
    15e4:	8880040c 	andi	r2,r17,16
    15e8:	1001b81e 	bne	r2,zero,1ccc <___vfprintf_internal_r+0x1350>
    15ec:	8880100c 	andi	r2,r17,64
    15f0:	1001b626 	beq	r2,zero,1ccc <___vfprintf_internal_r+0x1350>
    15f4:	dac02d17 	ldw	r11,180(sp)
    15f8:	0039883a 	mov	fp,zero
    15fc:	00800044 	movi	r2,1
    1600:	5cc0000b 	ldhu	r19,0(r11)
    1604:	5ac00104 	addi	r11,r11,4
    1608:	dac02d15 	stw	r11,180(sp)
    160c:	9807883a 	mov	r3,r19
    1610:	003f0906 	br	1238 <__alt_mem_onchip_memory2_0+0xfbfe1238>
    1614:	d8c02a15 	stw	r3,168(sp)
    1618:	8880080c 	andi	r2,r17,32
    161c:	103eff1e 	bne	r2,zero,121c <__alt_mem_onchip_memory2_0+0xfbfe121c>
    1620:	8880040c 	andi	r2,r17,16
    1624:	1001a11e 	bne	r2,zero,1cac <___vfprintf_internal_r+0x1330>
    1628:	8880100c 	andi	r2,r17,64
    162c:	10019f26 	beq	r2,zero,1cac <___vfprintf_internal_r+0x1330>
    1630:	db002d17 	ldw	r12,180(sp)
    1634:	0039883a 	mov	fp,zero
    1638:	0005883a 	mov	r2,zero
    163c:	64c0000b 	ldhu	r19,0(r12)
    1640:	63000104 	addi	r12,r12,4
    1644:	db002d15 	stw	r12,180(sp)
    1648:	9807883a 	mov	r3,r19
    164c:	003efa06 	br	1238 <__alt_mem_onchip_memory2_0+0xfbfe1238>
    1650:	d8c02a15 	stw	r3,168(sp)
    1654:	d9802785 	stb	r6,158(sp)
    1658:	803db626 	beq	r16,zero,d34 <__alt_mem_onchip_memory2_0+0xfbfe0d34>
    165c:	00c00044 	movi	r3,1
    1660:	d8c02b15 	stw	r3,172(sp)
    1664:	dc001405 	stb	r16,80(sp)
    1668:	d8002785 	stb	zero,158(sp)
    166c:	003f9e06 	br	14e8 <__alt_mem_onchip_memory2_0+0xfbfe14e8>
    1670:	d8c02017 	ldw	r3,128(sp)
    1674:	003e5306 	br	fc4 <__alt_mem_onchip_memory2_0+0xfbfe0fc4>
    1678:	10803fcc 	andi	r2,r2,255
    167c:	00c00044 	movi	r3,1
    1680:	10fdfa1e 	bne	r2,r3,e6c <__alt_mem_onchip_memory2_0+0xfbfe0e6c>
    1684:	e000021e 	bne	fp,zero,1690 <___vfprintf_internal_r+0xd14>
    1688:	00800244 	movi	r2,9
    168c:	14c0202e 	bgeu	r2,r19,1710 <___vfprintf_internal_r+0xd94>
    1690:	dc002b15 	stw	r16,172(sp)
    1694:	dc402c15 	stw	r17,176(sp)
    1698:	9821883a 	mov	r16,r19
    169c:	e023883a 	mov	r17,fp
    16a0:	dc801e04 	addi	r18,sp,120
    16a4:	4827883a 	mov	r19,r9
    16a8:	4039883a 	mov	fp,r8
    16ac:	8009883a 	mov	r4,r16
    16b0:	880b883a 	mov	r5,r17
    16b4:	01800284 	movi	r6,10
    16b8:	000f883a 	mov	r7,zero
    16bc:	0009dd40 	call	9dd4 <__umoddi3>
    16c0:	10800c04 	addi	r2,r2,48
    16c4:	94bfffc4 	addi	r18,r18,-1
    16c8:	8009883a 	mov	r4,r16
    16cc:	880b883a 	mov	r5,r17
    16d0:	01800284 	movi	r6,10
    16d4:	000f883a 	mov	r7,zero
    16d8:	90800005 	stb	r2,0(r18)
    16dc:	00098140 	call	9814 <__udivdi3>
    16e0:	1021883a 	mov	r16,r2
    16e4:	10c4b03a 	or	r2,r2,r3
    16e8:	1823883a 	mov	r17,r3
    16ec:	103fef1e 	bne	r2,zero,16ac <__alt_mem_onchip_memory2_0+0xfbfe16ac>
    16f0:	dac02817 	ldw	r11,160(sp)
    16f4:	dc803115 	stw	r18,196(sp)
    16f8:	dc002b17 	ldw	r16,172(sp)
    16fc:	dc402c17 	ldw	r17,176(sp)
    1700:	9813883a 	mov	r9,r19
    1704:	e011883a 	mov	r8,fp
    1708:	5ca5c83a 	sub	r18,r11,r18
    170c:	003de906 	br	eb4 <__alt_mem_onchip_memory2_0+0xfbfe0eb4>
    1710:	9cc00c04 	addi	r19,r19,48
    1714:	d8c01dc4 	addi	r3,sp,119
    1718:	dcc01dc5 	stb	r19,119(sp)
    171c:	dc803c17 	ldw	r18,240(sp)
    1720:	d8c03115 	stw	r3,196(sp)
    1724:	003de306 	br	eb4 <__alt_mem_onchip_memory2_0+0xfbfe0eb4>
    1728:	00801944 	movi	r2,101
    172c:	1400710e 	bge	r2,r16,18f4 <___vfprintf_internal_r+0xf78>
    1730:	d9003717 	ldw	r4,220(sp)
    1734:	d9403917 	ldw	r5,228(sp)
    1738:	000d883a 	mov	r6,zero
    173c:	000f883a 	mov	r7,zero
    1740:	d8c03d15 	stw	r3,244(sp)
    1744:	da003f15 	stw	r8,252(sp)
    1748:	000b5f80 	call	b5f8 <__eqdf2>
    174c:	d8c03d17 	ldw	r3,244(sp)
    1750:	da003f17 	ldw	r8,252(sp)
    1754:	1000ef1e 	bne	r2,zero,1b14 <___vfprintf_internal_r+0x1198>
    1758:	d8801f17 	ldw	r2,124(sp)
    175c:	01000074 	movhi	r4,1
    1760:	213fae04 	addi	r4,r4,-328
    1764:	18c00044 	addi	r3,r3,1
    1768:	10800044 	addi	r2,r2,1
    176c:	41000015 	stw	r4,0(r8)
    1770:	01000044 	movi	r4,1
    1774:	41000115 	stw	r4,4(r8)
    1778:	d8c02015 	stw	r3,128(sp)
    177c:	d8801f15 	stw	r2,124(sp)
    1780:	010001c4 	movi	r4,7
    1784:	20828e16 	blt	r4,r2,21c0 <___vfprintf_internal_r+0x1844>
    1788:	42000204 	addi	r8,r8,8
    178c:	d8802617 	ldw	r2,152(sp)
    1790:	dac03317 	ldw	r11,204(sp)
    1794:	12c00216 	blt	r2,r11,17a0 <___vfprintf_internal_r+0xe24>
    1798:	8880004c 	andi	r2,r17,1
    179c:	103e5d26 	beq	r2,zero,1114 <__alt_mem_onchip_memory2_0+0xfbfe1114>
    17a0:	db003817 	ldw	r12,224(sp)
    17a4:	d8801f17 	ldw	r2,124(sp)
    17a8:	dac03517 	ldw	r11,212(sp)
    17ac:	1b07883a 	add	r3,r3,r12
    17b0:	10800044 	addi	r2,r2,1
    17b4:	42c00015 	stw	r11,0(r8)
    17b8:	43000115 	stw	r12,4(r8)
    17bc:	d8c02015 	stw	r3,128(sp)
    17c0:	d8801f15 	stw	r2,124(sp)
    17c4:	010001c4 	movi	r4,7
    17c8:	2082ed16 	blt	r4,r2,2380 <___vfprintf_internal_r+0x1a04>
    17cc:	42000204 	addi	r8,r8,8
    17d0:	db003317 	ldw	r12,204(sp)
    17d4:	643fffc4 	addi	r16,r12,-1
    17d8:	043e4e0e 	bge	zero,r16,1114 <__alt_mem_onchip_memory2_0+0xfbfe1114>
    17dc:	04800404 	movi	r18,16
    17e0:	d8801f17 	ldw	r2,124(sp)
    17e4:	94007e0e 	bge	r18,r16,19e0 <___vfprintf_internal_r+0x1064>
    17e8:	01400074 	movhi	r5,1
    17ec:	297fae84 	addi	r5,r5,-326
    17f0:	d9402c15 	stw	r5,176(sp)
    17f4:	054001c4 	movi	r21,7
    17f8:	00000306 	br	1808 <___vfprintf_internal_r+0xe8c>
    17fc:	42000204 	addi	r8,r8,8
    1800:	843ffc04 	addi	r16,r16,-16
    1804:	9400790e 	bge	r18,r16,19ec <___vfprintf_internal_r+0x1070>
    1808:	18c00404 	addi	r3,r3,16
    180c:	10800044 	addi	r2,r2,1
    1810:	45000015 	stw	r20,0(r8)
    1814:	44800115 	stw	r18,4(r8)
    1818:	d8c02015 	stw	r3,128(sp)
    181c:	d8801f15 	stw	r2,124(sp)
    1820:	a8bff60e 	bge	r21,r2,17fc <__alt_mem_onchip_memory2_0+0xfbfe17fc>
    1824:	b009883a 	mov	r4,r22
    1828:	b80b883a 	mov	r5,r23
    182c:	d9801e04 	addi	r6,sp,120
    1830:	0007b540 	call	7b54 <__sprint_r>
    1834:	103d451e 	bne	r2,zero,d4c <__alt_mem_onchip_memory2_0+0xfbfe0d4c>
    1838:	d8c02017 	ldw	r3,128(sp)
    183c:	d8801f17 	ldw	r2,124(sp)
    1840:	da000404 	addi	r8,sp,16
    1844:	003fee06 	br	1800 <__alt_mem_onchip_memory2_0+0xfbfe1800>
    1848:	dac02e17 	ldw	r11,184(sp)
    184c:	db002b17 	ldw	r12,172(sp)
    1850:	5b2bc83a 	sub	r21,r11,r12
    1854:	057df90e 	bge	zero,r21,103c <__alt_mem_onchip_memory2_0+0xfbfe103c>
    1858:	07000404 	movi	fp,16
    185c:	d8801f17 	ldw	r2,124(sp)
    1860:	e543640e 	bge	fp,r21,25f4 <___vfprintf_internal_r+0x1c78>
    1864:	01400074 	movhi	r5,1
    1868:	297fae84 	addi	r5,r5,-326
    186c:	d9402c15 	stw	r5,176(sp)
    1870:	04c001c4 	movi	r19,7
    1874:	00000306 	br	1884 <___vfprintf_internal_r+0xf08>
    1878:	ad7ffc04 	addi	r21,r21,-16
    187c:	42000204 	addi	r8,r8,8
    1880:	e540110e 	bge	fp,r21,18c8 <___vfprintf_internal_r+0xf4c>
    1884:	18c00404 	addi	r3,r3,16
    1888:	10800044 	addi	r2,r2,1
    188c:	45000015 	stw	r20,0(r8)
    1890:	47000115 	stw	fp,4(r8)
    1894:	d8c02015 	stw	r3,128(sp)
    1898:	d8801f15 	stw	r2,124(sp)
    189c:	98bff60e 	bge	r19,r2,1878 <__alt_mem_onchip_memory2_0+0xfbfe1878>
    18a0:	b009883a 	mov	r4,r22
    18a4:	b80b883a 	mov	r5,r23
    18a8:	d9801e04 	addi	r6,sp,120
    18ac:	0007b540 	call	7b54 <__sprint_r>
    18b0:	103d261e 	bne	r2,zero,d4c <__alt_mem_onchip_memory2_0+0xfbfe0d4c>
    18b4:	ad7ffc04 	addi	r21,r21,-16
    18b8:	d8c02017 	ldw	r3,128(sp)
    18bc:	d8801f17 	ldw	r2,124(sp)
    18c0:	da000404 	addi	r8,sp,16
    18c4:	e57fef16 	blt	fp,r21,1884 <__alt_mem_onchip_memory2_0+0xfbfe1884>
    18c8:	dac02c17 	ldw	r11,176(sp)
    18cc:	1d47883a 	add	r3,r3,r21
    18d0:	10800044 	addi	r2,r2,1
    18d4:	42c00015 	stw	r11,0(r8)
    18d8:	45400115 	stw	r21,4(r8)
    18dc:	d8c02015 	stw	r3,128(sp)
    18e0:	d8801f15 	stw	r2,124(sp)
    18e4:	010001c4 	movi	r4,7
    18e8:	20819116 	blt	r4,r2,1f30 <___vfprintf_internal_r+0x15b4>
    18ec:	42000204 	addi	r8,r8,8
    18f0:	003dd206 	br	103c <__alt_mem_onchip_memory2_0+0xfbfe103c>
    18f4:	db003317 	ldw	r12,204(sp)
    18f8:	00800044 	movi	r2,1
    18fc:	18c00044 	addi	r3,r3,1
    1900:	1301530e 	bge	r2,r12,1e50 <___vfprintf_internal_r+0x14d4>
    1904:	dc001f17 	ldw	r16,124(sp)
    1908:	dac03117 	ldw	r11,196(sp)
    190c:	00800044 	movi	r2,1
    1910:	84000044 	addi	r16,r16,1
    1914:	40800115 	stw	r2,4(r8)
    1918:	42c00015 	stw	r11,0(r8)
    191c:	d8c02015 	stw	r3,128(sp)
    1920:	dc001f15 	stw	r16,124(sp)
    1924:	008001c4 	movi	r2,7
    1928:	14016b16 	blt	r2,r16,1ed8 <___vfprintf_internal_r+0x155c>
    192c:	42000204 	addi	r8,r8,8
    1930:	db003817 	ldw	r12,224(sp)
    1934:	dac03517 	ldw	r11,212(sp)
    1938:	84000044 	addi	r16,r16,1
    193c:	1b07883a 	add	r3,r3,r12
    1940:	42c00015 	stw	r11,0(r8)
    1944:	43000115 	stw	r12,4(r8)
    1948:	d8c02015 	stw	r3,128(sp)
    194c:	dc001f15 	stw	r16,124(sp)
    1950:	008001c4 	movi	r2,7
    1954:	14016916 	blt	r2,r16,1efc <___vfprintf_internal_r+0x1580>
    1958:	44800204 	addi	r18,r8,8
    195c:	d9003717 	ldw	r4,220(sp)
    1960:	d9403917 	ldw	r5,228(sp)
    1964:	000d883a 	mov	r6,zero
    1968:	000f883a 	mov	r7,zero
    196c:	d8c03d15 	stw	r3,244(sp)
    1970:	000b5f80 	call	b5f8 <__eqdf2>
    1974:	d8c03d17 	ldw	r3,244(sp)
    1978:	db003317 	ldw	r12,204(sp)
    197c:	1000ad26 	beq	r2,zero,1c34 <___vfprintf_internal_r+0x12b8>
    1980:	dac03117 	ldw	r11,196(sp)
    1984:	60bfffc4 	addi	r2,r12,-1
    1988:	1887883a 	add	r3,r3,r2
    198c:	59000044 	addi	r4,r11,1
    1990:	84000044 	addi	r16,r16,1
    1994:	90800115 	stw	r2,4(r18)
    1998:	91000015 	stw	r4,0(r18)
    199c:	d8c02015 	stw	r3,128(sp)
    19a0:	dc001f15 	stw	r16,124(sp)
    19a4:	008001c4 	movi	r2,7
    19a8:	14014216 	blt	r2,r16,1eb4 <___vfprintf_internal_r+0x1538>
    19ac:	94800204 	addi	r18,r18,8
    19b0:	dac03a17 	ldw	r11,232(sp)
    19b4:	dd4022c4 	addi	r21,sp,139
    19b8:	84000044 	addi	r16,r16,1
    19bc:	1ac7883a 	add	r3,r3,r11
    19c0:	95400015 	stw	r21,0(r18)
    19c4:	92c00115 	stw	r11,4(r18)
    19c8:	d8c02015 	stw	r3,128(sp)
    19cc:	dc001f15 	stw	r16,124(sp)
    19d0:	008001c4 	movi	r2,7
    19d4:	14000e16 	blt	r2,r16,1a10 <___vfprintf_internal_r+0x1094>
    19d8:	92000204 	addi	r8,r18,8
    19dc:	003dcd06 	br	1114 <__alt_mem_onchip_memory2_0+0xfbfe1114>
    19e0:	01000074 	movhi	r4,1
    19e4:	213fae84 	addi	r4,r4,-326
    19e8:	d9002c15 	stw	r4,176(sp)
    19ec:	dac02c17 	ldw	r11,176(sp)
    19f0:	1c07883a 	add	r3,r3,r16
    19f4:	44000115 	stw	r16,4(r8)
    19f8:	42c00015 	stw	r11,0(r8)
    19fc:	10800044 	addi	r2,r2,1
    1a00:	d8c02015 	stw	r3,128(sp)
    1a04:	d8801f15 	stw	r2,124(sp)
    1a08:	010001c4 	movi	r4,7
    1a0c:	20bdc00e 	bge	r4,r2,1110 <__alt_mem_onchip_memory2_0+0xfbfe1110>
    1a10:	b009883a 	mov	r4,r22
    1a14:	b80b883a 	mov	r5,r23
    1a18:	d9801e04 	addi	r6,sp,120
    1a1c:	0007b540 	call	7b54 <__sprint_r>
    1a20:	103cca1e 	bne	r2,zero,d4c <__alt_mem_onchip_memory2_0+0xfbfe0d4c>
    1a24:	d8c02017 	ldw	r3,128(sp)
    1a28:	da000404 	addi	r8,sp,16
    1a2c:	003db906 	br	1114 <__alt_mem_onchip_memory2_0+0xfbfe1114>
    1a30:	b009883a 	mov	r4,r22
    1a34:	b80b883a 	mov	r5,r23
    1a38:	d9801e04 	addi	r6,sp,120
    1a3c:	0007b540 	call	7b54 <__sprint_r>
    1a40:	103def26 	beq	r2,zero,1200 <__alt_mem_onchip_memory2_0+0xfbfe1200>
    1a44:	003cc106 	br	d4c <__alt_mem_onchip_memory2_0+0xfbfe0d4c>
    1a48:	10803fcc 	andi	r2,r2,255
    1a4c:	1000651e 	bne	r2,zero,1be4 <___vfprintf_internal_r+0x1268>
    1a50:	8880004c 	andi	r2,r17,1
    1a54:	10013226 	beq	r2,zero,1f20 <___vfprintf_internal_r+0x15a4>
    1a58:	00800c04 	movi	r2,48
    1a5c:	d8c01dc4 	addi	r3,sp,119
    1a60:	d8801dc5 	stb	r2,119(sp)
    1a64:	dc803c17 	ldw	r18,240(sp)
    1a68:	d8c03115 	stw	r3,196(sp)
    1a6c:	003d1106 	br	eb4 <__alt_mem_onchip_memory2_0+0xfbfe0eb4>
    1a70:	b009883a 	mov	r4,r22
    1a74:	b80b883a 	mov	r5,r23
    1a78:	d9801e04 	addi	r6,sp,120
    1a7c:	0007b540 	call	7b54 <__sprint_r>
    1a80:	103cb21e 	bne	r2,zero,d4c <__alt_mem_onchip_memory2_0+0xfbfe0d4c>
    1a84:	d8c02017 	ldw	r3,128(sp)
    1a88:	da000404 	addi	r8,sp,16
    1a8c:	003d9406 	br	10e0 <__alt_mem_onchip_memory2_0+0xfbfe10e0>
    1a90:	b009883a 	mov	r4,r22
    1a94:	b80b883a 	mov	r5,r23
    1a98:	d9801e04 	addi	r6,sp,120
    1a9c:	0007b540 	call	7b54 <__sprint_r>
    1aa0:	103caa1e 	bne	r2,zero,d4c <__alt_mem_onchip_memory2_0+0xfbfe0d4c>
    1aa4:	d8c02017 	ldw	r3,128(sp)
    1aa8:	da000404 	addi	r8,sp,16
    1aac:	003d5206 	br	ff8 <__alt_mem_onchip_memory2_0+0xfbfe0ff8>
    1ab0:	b009883a 	mov	r4,r22
    1ab4:	b80b883a 	mov	r5,r23
    1ab8:	d9801e04 	addi	r6,sp,120
    1abc:	0007b540 	call	7b54 <__sprint_r>
    1ac0:	103ca21e 	bne	r2,zero,d4c <__alt_mem_onchip_memory2_0+0xfbfe0d4c>
    1ac4:	d8c02017 	ldw	r3,128(sp)
    1ac8:	da000404 	addi	r8,sp,16
    1acc:	003d5806 	br	1030 <__alt_mem_onchip_memory2_0+0xfbfe1030>
    1ad0:	d9403b17 	ldw	r5,236(sp)
    1ad4:	d8c01e04 	addi	r3,sp,120
    1ad8:	988003cc 	andi	r2,r19,15
    1adc:	e008973a 	slli	r4,fp,28
    1ae0:	2885883a 	add	r2,r5,r2
    1ae4:	9826d13a 	srli	r19,r19,4
    1ae8:	10800003 	ldbu	r2,0(r2)
    1aec:	e038d13a 	srli	fp,fp,4
    1af0:	18ffffc4 	addi	r3,r3,-1
    1af4:	24e6b03a 	or	r19,r4,r19
    1af8:	18800005 	stb	r2,0(r3)
    1afc:	9f04b03a 	or	r2,r19,fp
    1b00:	103ff51e 	bne	r2,zero,1ad8 <__alt_mem_onchip_memory2_0+0xfbfe1ad8>
    1b04:	db002817 	ldw	r12,160(sp)
    1b08:	d8c03115 	stw	r3,196(sp)
    1b0c:	60e5c83a 	sub	r18,r12,r3
    1b10:	003ce806 	br	eb4 <__alt_mem_onchip_memory2_0+0xfbfe0eb4>
    1b14:	dc002617 	ldw	r16,152(sp)
    1b18:	0401b10e 	bge	zero,r16,21e0 <___vfprintf_internal_r+0x1864>
    1b1c:	db003117 	ldw	r12,196(sp)
    1b20:	dac03317 	ldw	r11,204(sp)
    1b24:	62e1883a 	add	r16,r12,r11
    1b28:	db003417 	ldw	r12,208(sp)
    1b2c:	5825883a 	mov	r18,r11
    1b30:	62c0010e 	bge	r12,r11,1b38 <___vfprintf_internal_r+0x11bc>
    1b34:	6025883a 	mov	r18,r12
    1b38:	04800b0e 	bge	zero,r18,1b68 <___vfprintf_internal_r+0x11ec>
    1b3c:	d8801f17 	ldw	r2,124(sp)
    1b40:	dac03117 	ldw	r11,196(sp)
    1b44:	1c87883a 	add	r3,r3,r18
    1b48:	10800044 	addi	r2,r2,1
    1b4c:	42c00015 	stw	r11,0(r8)
    1b50:	44800115 	stw	r18,4(r8)
    1b54:	d8c02015 	stw	r3,128(sp)
    1b58:	d8801f15 	stw	r2,124(sp)
    1b5c:	010001c4 	movi	r4,7
    1b60:	20824f16 	blt	r4,r2,24a0 <___vfprintf_internal_r+0x1b24>
    1b64:	42000204 	addi	r8,r8,8
    1b68:	90024b16 	blt	r18,zero,2498 <___vfprintf_internal_r+0x1b1c>
    1b6c:	db003417 	ldw	r12,208(sp)
    1b70:	64a5c83a 	sub	r18,r12,r18
    1b74:	0480730e 	bge	zero,r18,1d44 <___vfprintf_internal_r+0x13c8>
    1b78:	05400404 	movi	r21,16
    1b7c:	d8801f17 	ldw	r2,124(sp)
    1b80:	ac817d0e 	bge	r21,r18,2178 <___vfprintf_internal_r+0x17fc>
    1b84:	01400074 	movhi	r5,1
    1b88:	297fae84 	addi	r5,r5,-326
    1b8c:	d9402c15 	stw	r5,176(sp)
    1b90:	070001c4 	movi	fp,7
    1b94:	00000306 	br	1ba4 <___vfprintf_internal_r+0x1228>
    1b98:	42000204 	addi	r8,r8,8
    1b9c:	94bffc04 	addi	r18,r18,-16
    1ba0:	ac81780e 	bge	r21,r18,2184 <___vfprintf_internal_r+0x1808>
    1ba4:	18c00404 	addi	r3,r3,16
    1ba8:	10800044 	addi	r2,r2,1
    1bac:	45000015 	stw	r20,0(r8)
    1bb0:	45400115 	stw	r21,4(r8)
    1bb4:	d8c02015 	stw	r3,128(sp)
    1bb8:	d8801f15 	stw	r2,124(sp)
    1bbc:	e0bff60e 	bge	fp,r2,1b98 <__alt_mem_onchip_memory2_0+0xfbfe1b98>
    1bc0:	b009883a 	mov	r4,r22
    1bc4:	b80b883a 	mov	r5,r23
    1bc8:	d9801e04 	addi	r6,sp,120
    1bcc:	0007b540 	call	7b54 <__sprint_r>
    1bd0:	103c5e1e 	bne	r2,zero,d4c <__alt_mem_onchip_memory2_0+0xfbfe0d4c>
    1bd4:	d8c02017 	ldw	r3,128(sp)
    1bd8:	d8801f17 	ldw	r2,124(sp)
    1bdc:	da000404 	addi	r8,sp,16
    1be0:	003fee06 	br	1b9c <__alt_mem_onchip_memory2_0+0xfbfe1b9c>
    1be4:	dac01e04 	addi	r11,sp,120
    1be8:	0025883a 	mov	r18,zero
    1bec:	dac03115 	stw	r11,196(sp)
    1bf0:	003cb006 	br	eb4 <__alt_mem_onchip_memory2_0+0xfbfe0eb4>
    1bf4:	b009883a 	mov	r4,r22
    1bf8:	b80b883a 	mov	r5,r23
    1bfc:	d9801e04 	addi	r6,sp,120
    1c00:	0007b540 	call	7b54 <__sprint_r>
    1c04:	103c511e 	bne	r2,zero,d4c <__alt_mem_onchip_memory2_0+0xfbfe0d4c>
    1c08:	d8c02017 	ldw	r3,128(sp)
    1c0c:	d8802787 	ldb	r2,158(sp)
    1c10:	da000404 	addi	r8,sp,16
    1c14:	003ceb06 	br	fc4 <__alt_mem_onchip_memory2_0+0xfbfe0fc4>
    1c18:	1cc00017 	ldw	r19,0(r3)
    1c1c:	dac02d17 	ldw	r11,180(sp)
    1c20:	9839d7fa 	srai	fp,r19,31
    1c24:	5ac00104 	addi	r11,r11,4
    1c28:	dac02d15 	stw	r11,180(sp)
    1c2c:	e005883a 	mov	r2,fp
    1c30:	003c8106 	br	e38 <__alt_mem_onchip_memory2_0+0xfbfe0e38>
    1c34:	657fffc4 	addi	r21,r12,-1
    1c38:	057f5d0e 	bge	zero,r21,19b0 <__alt_mem_onchip_memory2_0+0xfbfe19b0>
    1c3c:	07000404 	movi	fp,16
    1c40:	e540900e 	bge	fp,r21,1e84 <___vfprintf_internal_r+0x1508>
    1c44:	01000074 	movhi	r4,1
    1c48:	213fae84 	addi	r4,r4,-326
    1c4c:	d9002c15 	stw	r4,176(sp)
    1c50:	01c001c4 	movi	r7,7
    1c54:	00000306 	br	1c64 <___vfprintf_internal_r+0x12e8>
    1c58:	94800204 	addi	r18,r18,8
    1c5c:	ad7ffc04 	addi	r21,r21,-16
    1c60:	e5408b0e 	bge	fp,r21,1e90 <___vfprintf_internal_r+0x1514>
    1c64:	18c00404 	addi	r3,r3,16
    1c68:	84000044 	addi	r16,r16,1
    1c6c:	95000015 	stw	r20,0(r18)
    1c70:	97000115 	stw	fp,4(r18)
    1c74:	d8c02015 	stw	r3,128(sp)
    1c78:	dc001f15 	stw	r16,124(sp)
    1c7c:	3c3ff60e 	bge	r7,r16,1c58 <__alt_mem_onchip_memory2_0+0xfbfe1c58>
    1c80:	b009883a 	mov	r4,r22
    1c84:	b80b883a 	mov	r5,r23
    1c88:	d9801e04 	addi	r6,sp,120
    1c8c:	d9c03d15 	stw	r7,244(sp)
    1c90:	0007b540 	call	7b54 <__sprint_r>
    1c94:	d9c03d17 	ldw	r7,244(sp)
    1c98:	103c2c1e 	bne	r2,zero,d4c <__alt_mem_onchip_memory2_0+0xfbfe0d4c>
    1c9c:	d8c02017 	ldw	r3,128(sp)
    1ca0:	dc001f17 	ldw	r16,124(sp)
    1ca4:	dc800404 	addi	r18,sp,16
    1ca8:	003fec06 	br	1c5c <__alt_mem_onchip_memory2_0+0xfbfe1c5c>
    1cac:	dac02d17 	ldw	r11,180(sp)
    1cb0:	0039883a 	mov	fp,zero
    1cb4:	0005883a 	mov	r2,zero
    1cb8:	5cc00017 	ldw	r19,0(r11)
    1cbc:	5ac00104 	addi	r11,r11,4
    1cc0:	dac02d15 	stw	r11,180(sp)
    1cc4:	9807883a 	mov	r3,r19
    1cc8:	003d5b06 	br	1238 <__alt_mem_onchip_memory2_0+0xfbfe1238>
    1ccc:	db002d17 	ldw	r12,180(sp)
    1cd0:	0039883a 	mov	fp,zero
    1cd4:	00800044 	movi	r2,1
    1cd8:	64c00017 	ldw	r19,0(r12)
    1cdc:	63000104 	addi	r12,r12,4
    1ce0:	db002d15 	stw	r12,180(sp)
    1ce4:	9807883a 	mov	r3,r19
    1ce8:	003d5306 	br	1238 <__alt_mem_onchip_memory2_0+0xfbfe1238>
    1cec:	00800084 	movi	r2,2
    1cf0:	9f06b03a 	or	r3,r19,fp
    1cf4:	003d5006 	br	1238 <__alt_mem_onchip_memory2_0+0xfbfe1238>
    1cf8:	10803fcc 	andi	r2,r2,255
    1cfc:	1080201c 	xori	r2,r2,128
    1d00:	10bfe004 	addi	r2,r2,-128
    1d04:	01000c04 	movi	r4,48
    1d08:	1101a526 	beq	r2,r4,23a0 <___vfprintf_internal_r+0x1a24>
    1d0c:	dac03117 	ldw	r11,196(sp)
    1d10:	db002817 	ldw	r12,160(sp)
    1d14:	193fffc5 	stb	r4,-1(r3)
    1d18:	5affffc4 	addi	r11,r11,-1
    1d1c:	dac03115 	stw	r11,196(sp)
    1d20:	62e5c83a 	sub	r18,r12,r11
    1d24:	003c6306 	br	eb4 <__alt_mem_onchip_memory2_0+0xfbfe0eb4>
    1d28:	b009883a 	mov	r4,r22
    1d2c:	b80b883a 	mov	r5,r23
    1d30:	d9801e04 	addi	r6,sp,120
    1d34:	0007b540 	call	7b54 <__sprint_r>
    1d38:	103c041e 	bne	r2,zero,d4c <__alt_mem_onchip_memory2_0+0xfbfe0d4c>
    1d3c:	d8c02017 	ldw	r3,128(sp)
    1d40:	da000404 	addi	r8,sp,16
    1d44:	db003117 	ldw	r12,196(sp)
    1d48:	dac03417 	ldw	r11,208(sp)
    1d4c:	d8802617 	ldw	r2,152(sp)
    1d50:	62e5883a 	add	r18,r12,r11
    1d54:	db003317 	ldw	r12,204(sp)
    1d58:	13000216 	blt	r2,r12,1d64 <___vfprintf_internal_r+0x13e8>
    1d5c:	8900004c 	andi	r4,r17,1
    1d60:	20000c26 	beq	r4,zero,1d94 <___vfprintf_internal_r+0x1418>
    1d64:	dac03817 	ldw	r11,224(sp)
    1d68:	d9001f17 	ldw	r4,124(sp)
    1d6c:	db003517 	ldw	r12,212(sp)
    1d70:	1ac7883a 	add	r3,r3,r11
    1d74:	21000044 	addi	r4,r4,1
    1d78:	43000015 	stw	r12,0(r8)
    1d7c:	42c00115 	stw	r11,4(r8)
    1d80:	d8c02015 	stw	r3,128(sp)
    1d84:	d9001f15 	stw	r4,124(sp)
    1d88:	014001c4 	movi	r5,7
    1d8c:	2901cc16 	blt	r5,r4,24c0 <___vfprintf_internal_r+0x1b44>
    1d90:	42000204 	addi	r8,r8,8
    1d94:	dac03317 	ldw	r11,204(sp)
    1d98:	8489c83a 	sub	r4,r16,r18
    1d9c:	5885c83a 	sub	r2,r11,r2
    1da0:	1021883a 	mov	r16,r2
    1da4:	2080010e 	bge	r4,r2,1dac <___vfprintf_internal_r+0x1430>
    1da8:	2021883a 	mov	r16,r4
    1dac:	04000a0e 	bge	zero,r16,1dd8 <___vfprintf_internal_r+0x145c>
    1db0:	d9001f17 	ldw	r4,124(sp)
    1db4:	1c07883a 	add	r3,r3,r16
    1db8:	44800015 	stw	r18,0(r8)
    1dbc:	21000044 	addi	r4,r4,1
    1dc0:	44000115 	stw	r16,4(r8)
    1dc4:	d8c02015 	stw	r3,128(sp)
    1dc8:	d9001f15 	stw	r4,124(sp)
    1dcc:	014001c4 	movi	r5,7
    1dd0:	2901e316 	blt	r5,r4,2560 <___vfprintf_internal_r+0x1be4>
    1dd4:	42000204 	addi	r8,r8,8
    1dd8:	8001df16 	blt	r16,zero,2558 <___vfprintf_internal_r+0x1bdc>
    1ddc:	1421c83a 	sub	r16,r2,r16
    1de0:	043ccc0e 	bge	zero,r16,1114 <__alt_mem_onchip_memory2_0+0xfbfe1114>
    1de4:	04800404 	movi	r18,16
    1de8:	d8801f17 	ldw	r2,124(sp)
    1dec:	943efc0e 	bge	r18,r16,19e0 <__alt_mem_onchip_memory2_0+0xfbfe19e0>
    1df0:	01400074 	movhi	r5,1
    1df4:	297fae84 	addi	r5,r5,-326
    1df8:	d9402c15 	stw	r5,176(sp)
    1dfc:	054001c4 	movi	r21,7
    1e00:	00000306 	br	1e10 <___vfprintf_internal_r+0x1494>
    1e04:	42000204 	addi	r8,r8,8
    1e08:	843ffc04 	addi	r16,r16,-16
    1e0c:	943ef70e 	bge	r18,r16,19ec <__alt_mem_onchip_memory2_0+0xfbfe19ec>
    1e10:	18c00404 	addi	r3,r3,16
    1e14:	10800044 	addi	r2,r2,1
    1e18:	45000015 	stw	r20,0(r8)
    1e1c:	44800115 	stw	r18,4(r8)
    1e20:	d8c02015 	stw	r3,128(sp)
    1e24:	d8801f15 	stw	r2,124(sp)
    1e28:	a8bff60e 	bge	r21,r2,1e04 <__alt_mem_onchip_memory2_0+0xfbfe1e04>
    1e2c:	b009883a 	mov	r4,r22
    1e30:	b80b883a 	mov	r5,r23
    1e34:	d9801e04 	addi	r6,sp,120
    1e38:	0007b540 	call	7b54 <__sprint_r>
    1e3c:	103bc31e 	bne	r2,zero,d4c <__alt_mem_onchip_memory2_0+0xfbfe0d4c>
    1e40:	d8c02017 	ldw	r3,128(sp)
    1e44:	d8801f17 	ldw	r2,124(sp)
    1e48:	da000404 	addi	r8,sp,16
    1e4c:	003fee06 	br	1e08 <__alt_mem_onchip_memory2_0+0xfbfe1e08>
    1e50:	8888703a 	and	r4,r17,r2
    1e54:	203eab1e 	bne	r4,zero,1904 <__alt_mem_onchip_memory2_0+0xfbfe1904>
    1e58:	dc001f17 	ldw	r16,124(sp)
    1e5c:	db003117 	ldw	r12,196(sp)
    1e60:	40800115 	stw	r2,4(r8)
    1e64:	84000044 	addi	r16,r16,1
    1e68:	43000015 	stw	r12,0(r8)
    1e6c:	d8c02015 	stw	r3,128(sp)
    1e70:	dc001f15 	stw	r16,124(sp)
    1e74:	008001c4 	movi	r2,7
    1e78:	14000e16 	blt	r2,r16,1eb4 <___vfprintf_internal_r+0x1538>
    1e7c:	44800204 	addi	r18,r8,8
    1e80:	003ecb06 	br	19b0 <__alt_mem_onchip_memory2_0+0xfbfe19b0>
    1e84:	00800074 	movhi	r2,1
    1e88:	10bfae84 	addi	r2,r2,-326
    1e8c:	d8802c15 	stw	r2,176(sp)
    1e90:	dac02c17 	ldw	r11,176(sp)
    1e94:	1d47883a 	add	r3,r3,r21
    1e98:	84000044 	addi	r16,r16,1
    1e9c:	92c00015 	stw	r11,0(r18)
    1ea0:	95400115 	stw	r21,4(r18)
    1ea4:	d8c02015 	stw	r3,128(sp)
    1ea8:	dc001f15 	stw	r16,124(sp)
    1eac:	008001c4 	movi	r2,7
    1eb0:	143ebe0e 	bge	r2,r16,19ac <__alt_mem_onchip_memory2_0+0xfbfe19ac>
    1eb4:	b009883a 	mov	r4,r22
    1eb8:	b80b883a 	mov	r5,r23
    1ebc:	d9801e04 	addi	r6,sp,120
    1ec0:	0007b540 	call	7b54 <__sprint_r>
    1ec4:	103ba11e 	bne	r2,zero,d4c <__alt_mem_onchip_memory2_0+0xfbfe0d4c>
    1ec8:	d8c02017 	ldw	r3,128(sp)
    1ecc:	dc001f17 	ldw	r16,124(sp)
    1ed0:	dc800404 	addi	r18,sp,16
    1ed4:	003eb606 	br	19b0 <__alt_mem_onchip_memory2_0+0xfbfe19b0>
    1ed8:	b009883a 	mov	r4,r22
    1edc:	b80b883a 	mov	r5,r23
    1ee0:	d9801e04 	addi	r6,sp,120
    1ee4:	0007b540 	call	7b54 <__sprint_r>
    1ee8:	103b981e 	bne	r2,zero,d4c <__alt_mem_onchip_memory2_0+0xfbfe0d4c>
    1eec:	d8c02017 	ldw	r3,128(sp)
    1ef0:	dc001f17 	ldw	r16,124(sp)
    1ef4:	da000404 	addi	r8,sp,16
    1ef8:	003e8d06 	br	1930 <__alt_mem_onchip_memory2_0+0xfbfe1930>
    1efc:	b009883a 	mov	r4,r22
    1f00:	b80b883a 	mov	r5,r23
    1f04:	d9801e04 	addi	r6,sp,120
    1f08:	0007b540 	call	7b54 <__sprint_r>
    1f0c:	103b8f1e 	bne	r2,zero,d4c <__alt_mem_onchip_memory2_0+0xfbfe0d4c>
    1f10:	d8c02017 	ldw	r3,128(sp)
    1f14:	dc001f17 	ldw	r16,124(sp)
    1f18:	dc800404 	addi	r18,sp,16
    1f1c:	003e8f06 	br	195c <__alt_mem_onchip_memory2_0+0xfbfe195c>
    1f20:	db001e04 	addi	r12,sp,120
    1f24:	0025883a 	mov	r18,zero
    1f28:	db003115 	stw	r12,196(sp)
    1f2c:	003be106 	br	eb4 <__alt_mem_onchip_memory2_0+0xfbfe0eb4>
    1f30:	b009883a 	mov	r4,r22
    1f34:	b80b883a 	mov	r5,r23
    1f38:	d9801e04 	addi	r6,sp,120
    1f3c:	0007b540 	call	7b54 <__sprint_r>
    1f40:	103b821e 	bne	r2,zero,d4c <__alt_mem_onchip_memory2_0+0xfbfe0d4c>
    1f44:	d8c02017 	ldw	r3,128(sp)
    1f48:	da000404 	addi	r8,sp,16
    1f4c:	003c3b06 	br	103c <__alt_mem_onchip_memory2_0+0xfbfe103c>
    1f50:	04e7c83a 	sub	r19,zero,r19
    1f54:	9804c03a 	cmpne	r2,r19,zero
    1f58:	0739c83a 	sub	fp,zero,fp
    1f5c:	e0b9c83a 	sub	fp,fp,r2
    1f60:	05400b44 	movi	r21,45
    1f64:	dd402785 	stb	r21,158(sp)
    1f68:	da403215 	stw	r9,200(sp)
    1f6c:	00800044 	movi	r2,1
    1f70:	9f06b03a 	or	r3,r19,fp
    1f74:	003bb506 	br	e4c <__alt_mem_onchip_memory2_0+0xfbfe0e4c>
    1f78:	da003f15 	stw	r8,252(sp)
    1f7c:	da403e15 	stw	r9,248(sp)
    1f80:	00077b00 	call	77b0 <__fpclassifyd>
    1f84:	da003f17 	ldw	r8,252(sp)
    1f88:	da403e17 	ldw	r9,248(sp)
    1f8c:	1000ce26 	beq	r2,zero,22c8 <___vfprintf_internal_r+0x194c>
    1f90:	057ff7c4 	movi	r21,-33
    1f94:	00bfffc4 	movi	r2,-1
    1f98:	856a703a 	and	r21,r16,r21
    1f9c:	4881e826 	beq	r9,r2,2740 <___vfprintf_internal_r+0x1dc4>
    1fa0:	008011c4 	movi	r2,71
    1fa4:	a881e326 	beq	r21,r2,2734 <___vfprintf_internal_r+0x1db8>
    1fa8:	db003917 	ldw	r12,228(sp)
    1fac:	8ac04014 	ori	r11,r17,256
    1fb0:	dac02d15 	stw	r11,180(sp)
    1fb4:	6001ed16 	blt	r12,zero,276c <___vfprintf_internal_r+0x1df0>
    1fb8:	dc803917 	ldw	r18,228(sp)
    1fbc:	d8002b05 	stb	zero,172(sp)
    1fc0:	00801984 	movi	r2,102
    1fc4:	80811826 	beq	r16,r2,2428 <___vfprintf_internal_r+0x1aac>
    1fc8:	00801184 	movi	r2,70
    1fcc:	80811626 	beq	r16,r2,2428 <___vfprintf_internal_r+0x1aac>
    1fd0:	00801144 	movi	r2,69
    1fd4:	a881e926 	beq	r21,r2,277c <___vfprintf_internal_r+0x1e00>
    1fd8:	4839883a 	mov	fp,r9
    1fdc:	d8802604 	addi	r2,sp,152
    1fe0:	d8800115 	stw	r2,4(sp)
    1fe4:	d9403717 	ldw	r5,220(sp)
    1fe8:	d8802504 	addi	r2,sp,148
    1fec:	d8800215 	stw	r2,8(sp)
    1ff0:	d8802104 	addi	r2,sp,132
    1ff4:	df000015 	stw	fp,0(sp)
    1ff8:	d8800315 	stw	r2,12(sp)
    1ffc:	b009883a 	mov	r4,r22
    2000:	900d883a 	mov	r6,r18
    2004:	01c00084 	movi	r7,2
    2008:	da003f15 	stw	r8,252(sp)
    200c:	da403e15 	stw	r9,248(sp)
    2010:	0002d000 	call	2d00 <_dtoa_r>
    2014:	d8803115 	stw	r2,196(sp)
    2018:	008019c4 	movi	r2,103
    201c:	da003f17 	ldw	r8,252(sp)
    2020:	da403e17 	ldw	r9,248(sp)
    2024:	80800226 	beq	r16,r2,2030 <___vfprintf_internal_r+0x16b4>
    2028:	008011c4 	movi	r2,71
    202c:	8081101e 	bne	r16,r2,2470 <___vfprintf_internal_r+0x1af4>
    2030:	8880004c 	andi	r2,r17,1
    2034:	1001dd26 	beq	r2,zero,27ac <___vfprintf_internal_r+0x1e30>
    2038:	db003117 	ldw	r12,196(sp)
    203c:	6715883a 	add	r10,r12,fp
    2040:	d9003717 	ldw	r4,220(sp)
    2044:	900b883a 	mov	r5,r18
    2048:	000d883a 	mov	r6,zero
    204c:	000f883a 	mov	r7,zero
    2050:	da003f15 	stw	r8,252(sp)
    2054:	da403e15 	stw	r9,248(sp)
    2058:	da803d15 	stw	r10,244(sp)
    205c:	000b5f80 	call	b5f8 <__eqdf2>
    2060:	da003f17 	ldw	r8,252(sp)
    2064:	da403e17 	ldw	r9,248(sp)
    2068:	da803d17 	ldw	r10,244(sp)
    206c:	10016526 	beq	r2,zero,2604 <___vfprintf_internal_r+0x1c88>
    2070:	d8802117 	ldw	r2,132(sp)
    2074:	1280062e 	bgeu	r2,r10,2090 <___vfprintf_internal_r+0x1714>
    2078:	01000c04 	movi	r4,48
    207c:	10c00044 	addi	r3,r2,1
    2080:	d8c02115 	stw	r3,132(sp)
    2084:	11000005 	stb	r4,0(r2)
    2088:	d8802117 	ldw	r2,132(sp)
    208c:	12bffb36 	bltu	r2,r10,207c <__alt_mem_onchip_memory2_0+0xfbfe207c>
    2090:	db003117 	ldw	r12,196(sp)
    2094:	1305c83a 	sub	r2,r2,r12
    2098:	d8803315 	stw	r2,204(sp)
    209c:	008011c4 	movi	r2,71
    20a0:	a8814d26 	beq	r21,r2,25d8 <___vfprintf_internal_r+0x1c5c>
    20a4:	00801944 	movi	r2,101
    20a8:	1402060e 	bge	r2,r16,28c4 <___vfprintf_internal_r+0x1f48>
    20ac:	00801984 	movi	r2,102
    20b0:	8081b426 	beq	r16,r2,2784 <___vfprintf_internal_r+0x1e08>
    20b4:	db002617 	ldw	r12,152(sp)
    20b8:	db003415 	stw	r12,208(sp)
    20bc:	db003417 	ldw	r12,208(sp)
    20c0:	dac03317 	ldw	r11,204(sp)
    20c4:	62c1a016 	blt	r12,r11,2748 <___vfprintf_internal_r+0x1dcc>
    20c8:	8c40004c 	andi	r17,r17,1
    20cc:	8801bf1e 	bne	r17,zero,27cc <___vfprintf_internal_r+0x1e50>
    20d0:	6005883a 	mov	r2,r12
    20d4:	6001b316 	blt	r12,zero,27a4 <___vfprintf_internal_r+0x1e28>
    20d8:	dc803417 	ldw	r18,208(sp)
    20dc:	df002b07 	ldb	fp,172(sp)
    20e0:	e0012e1e 	bne	fp,zero,259c <___vfprintf_internal_r+0x1c20>
    20e4:	dc402d17 	ldw	r17,180(sp)
    20e8:	dd402783 	ldbu	r21,158(sp)
    20ec:	d8802b15 	stw	r2,172(sp)
    20f0:	dcc02d15 	stw	r19,180(sp)
    20f4:	d8003215 	stw	zero,200(sp)
    20f8:	003b7306 	br	ec8 <__alt_mem_onchip_memory2_0+0xfbfe0ec8>
    20fc:	00800084 	movi	r2,2
    2100:	003c4d06 	br	1238 <__alt_mem_onchip_memory2_0+0xfbfe1238>
    2104:	8880040c 	andi	r2,r17,16
    2108:	1000091e 	bne	r2,zero,2130 <___vfprintf_internal_r+0x17b4>
    210c:	8c40100c 	andi	r17,r17,64
    2110:	88000726 	beq	r17,zero,2130 <___vfprintf_internal_r+0x17b4>
    2114:	db002d17 	ldw	r12,180(sp)
    2118:	dac02f17 	ldw	r11,188(sp)
    211c:	60800017 	ldw	r2,0(r12)
    2120:	63000104 	addi	r12,r12,4
    2124:	db002d15 	stw	r12,180(sp)
    2128:	12c0000d 	sth	r11,0(r2)
    212c:	003a4e06 	br	a68 <__alt_mem_onchip_memory2_0+0xfbfe0a68>
    2130:	db002d17 	ldw	r12,180(sp)
    2134:	dac02f17 	ldw	r11,188(sp)
    2138:	60800017 	ldw	r2,0(r12)
    213c:	63000104 	addi	r12,r12,4
    2140:	db002d15 	stw	r12,180(sp)
    2144:	12c00015 	stw	r11,0(r2)
    2148:	003a4706 	br	a68 <__alt_mem_onchip_memory2_0+0xfbfe0a68>
    214c:	1c000007 	ldb	r16,0(r3)
    2150:	1805883a 	mov	r2,r3
    2154:	003a6e06 	br	b10 <__alt_mem_onchip_memory2_0+0xfbfe0b10>
    2158:	88c0100c 	andi	r3,r17,64
    215c:	18006b26 	beq	r3,zero,230c <___vfprintf_internal_r+0x1990>
    2160:	dac02d17 	ldw	r11,180(sp)
    2164:	14c0000b 	ldhu	r19,0(r2)
    2168:	0039883a 	mov	fp,zero
    216c:	5ac00104 	addi	r11,r11,4
    2170:	dac02d15 	stw	r11,180(sp)
    2174:	003cb206 	br	1440 <__alt_mem_onchip_memory2_0+0xfbfe1440>
    2178:	01000074 	movhi	r4,1
    217c:	213fae84 	addi	r4,r4,-326
    2180:	d9002c15 	stw	r4,176(sp)
    2184:	dac02c17 	ldw	r11,176(sp)
    2188:	1c87883a 	add	r3,r3,r18
    218c:	10800044 	addi	r2,r2,1
    2190:	42c00015 	stw	r11,0(r8)
    2194:	44800115 	stw	r18,4(r8)
    2198:	d8c02015 	stw	r3,128(sp)
    219c:	d8801f15 	stw	r2,124(sp)
    21a0:	010001c4 	movi	r4,7
    21a4:	20bee016 	blt	r4,r2,1d28 <__alt_mem_onchip_memory2_0+0xfbfe1d28>
    21a8:	42000204 	addi	r8,r8,8
    21ac:	003ee506 	br	1d44 <__alt_mem_onchip_memory2_0+0xfbfe1d44>
    21b0:	01000074 	movhi	r4,1
    21b4:	213fae84 	addi	r4,r4,-326
    21b8:	d9002c15 	stw	r4,176(sp)
    21bc:	003bbe06 	br	10b8 <__alt_mem_onchip_memory2_0+0xfbfe10b8>
    21c0:	b009883a 	mov	r4,r22
    21c4:	b80b883a 	mov	r5,r23
    21c8:	d9801e04 	addi	r6,sp,120
    21cc:	0007b540 	call	7b54 <__sprint_r>
    21d0:	103ade1e 	bne	r2,zero,d4c <__alt_mem_onchip_memory2_0+0xfbfe0d4c>
    21d4:	d8c02017 	ldw	r3,128(sp)
    21d8:	da000404 	addi	r8,sp,16
    21dc:	003d6b06 	br	178c <__alt_mem_onchip_memory2_0+0xfbfe178c>
    21e0:	d8801f17 	ldw	r2,124(sp)
    21e4:	03000074 	movhi	r12,1
    21e8:	01000044 	movi	r4,1
    21ec:	18c00044 	addi	r3,r3,1
    21f0:	10800044 	addi	r2,r2,1
    21f4:	633fae04 	addi	r12,r12,-328
    21f8:	41000115 	stw	r4,4(r8)
    21fc:	43000015 	stw	r12,0(r8)
    2200:	d8c02015 	stw	r3,128(sp)
    2204:	d8801f15 	stw	r2,124(sp)
    2208:	010001c4 	movi	r4,7
    220c:	20804916 	blt	r4,r2,2334 <___vfprintf_internal_r+0x19b8>
    2210:	42000204 	addi	r8,r8,8
    2214:	8000041e 	bne	r16,zero,2228 <___vfprintf_internal_r+0x18ac>
    2218:	dac03317 	ldw	r11,204(sp)
    221c:	5800021e 	bne	r11,zero,2228 <___vfprintf_internal_r+0x18ac>
    2220:	8880004c 	andi	r2,r17,1
    2224:	103bbb26 	beq	r2,zero,1114 <__alt_mem_onchip_memory2_0+0xfbfe1114>
    2228:	db003817 	ldw	r12,224(sp)
    222c:	d8801f17 	ldw	r2,124(sp)
    2230:	dac03517 	ldw	r11,212(sp)
    2234:	1b07883a 	add	r3,r3,r12
    2238:	10800044 	addi	r2,r2,1
    223c:	42c00015 	stw	r11,0(r8)
    2240:	43000115 	stw	r12,4(r8)
    2244:	d8c02015 	stw	r3,128(sp)
    2248:	d8801f15 	stw	r2,124(sp)
    224c:	010001c4 	movi	r4,7
    2250:	20812e16 	blt	r4,r2,270c <___vfprintf_internal_r+0x1d90>
    2254:	42000204 	addi	r8,r8,8
    2258:	0421c83a 	sub	r16,zero,r16
    225c:	04005c0e 	bge	zero,r16,23d0 <___vfprintf_internal_r+0x1a54>
    2260:	04800404 	movi	r18,16
    2264:	94009f0e 	bge	r18,r16,24e4 <___vfprintf_internal_r+0x1b68>
    2268:	01000074 	movhi	r4,1
    226c:	213fae84 	addi	r4,r4,-326
    2270:	d9002c15 	stw	r4,176(sp)
    2274:	054001c4 	movi	r21,7
    2278:	00000306 	br	2288 <___vfprintf_internal_r+0x190c>
    227c:	42000204 	addi	r8,r8,8
    2280:	843ffc04 	addi	r16,r16,-16
    2284:	94009a0e 	bge	r18,r16,24f0 <___vfprintf_internal_r+0x1b74>
    2288:	18c00404 	addi	r3,r3,16
    228c:	10800044 	addi	r2,r2,1
    2290:	45000015 	stw	r20,0(r8)
    2294:	44800115 	stw	r18,4(r8)
    2298:	d8c02015 	stw	r3,128(sp)
    229c:	d8801f15 	stw	r2,124(sp)
    22a0:	a8bff60e 	bge	r21,r2,227c <__alt_mem_onchip_memory2_0+0xfbfe227c>
    22a4:	b009883a 	mov	r4,r22
    22a8:	b80b883a 	mov	r5,r23
    22ac:	d9801e04 	addi	r6,sp,120
    22b0:	0007b540 	call	7b54 <__sprint_r>
    22b4:	103aa51e 	bne	r2,zero,d4c <__alt_mem_onchip_memory2_0+0xfbfe0d4c>
    22b8:	d8c02017 	ldw	r3,128(sp)
    22bc:	d8801f17 	ldw	r2,124(sp)
    22c0:	da000404 	addi	r8,sp,16
    22c4:	003fee06 	br	2280 <__alt_mem_onchip_memory2_0+0xfbfe2280>
    22c8:	008011c4 	movi	r2,71
    22cc:	1400be16 	blt	r2,r16,25c8 <___vfprintf_internal_r+0x1c4c>
    22d0:	03000074 	movhi	r12,1
    22d4:	633fa004 	addi	r12,r12,-384
    22d8:	db003115 	stw	r12,196(sp)
    22dc:	00c000c4 	movi	r3,3
    22e0:	00bfdfc4 	movi	r2,-129
    22e4:	d8c02b15 	stw	r3,172(sp)
    22e8:	88a2703a 	and	r17,r17,r2
    22ec:	dd402783 	ldbu	r21,158(sp)
    22f0:	dcc02d15 	stw	r19,180(sp)
    22f4:	1825883a 	mov	r18,r3
    22f8:	d8003215 	stw	zero,200(sp)
    22fc:	d8003415 	stw	zero,208(sp)
    2300:	003af106 	br	ec8 <__alt_mem_onchip_memory2_0+0xfbfe0ec8>
    2304:	4825883a 	mov	r18,r9
    2308:	003c9306 	br	1558 <__alt_mem_onchip_memory2_0+0xfbfe1558>
    230c:	db002d17 	ldw	r12,180(sp)
    2310:	14c00017 	ldw	r19,0(r2)
    2314:	0039883a 	mov	fp,zero
    2318:	63000104 	addi	r12,r12,4
    231c:	db002d15 	stw	r12,180(sp)
    2320:	003c4706 	br	1440 <__alt_mem_onchip_memory2_0+0xfbfe1440>
    2324:	00800074 	movhi	r2,1
    2328:	10bf9e04 	addi	r2,r2,-392
    232c:	d8803115 	stw	r2,196(sp)
    2330:	003bf106 	br	12f8 <__alt_mem_onchip_memory2_0+0xfbfe12f8>
    2334:	b009883a 	mov	r4,r22
    2338:	b80b883a 	mov	r5,r23
    233c:	d9801e04 	addi	r6,sp,120
    2340:	0007b540 	call	7b54 <__sprint_r>
    2344:	103a811e 	bne	r2,zero,d4c <__alt_mem_onchip_memory2_0+0xfbfe0d4c>
    2348:	dc002617 	ldw	r16,152(sp)
    234c:	d8c02017 	ldw	r3,128(sp)
    2350:	da000404 	addi	r8,sp,16
    2354:	003faf06 	br	2214 <__alt_mem_onchip_memory2_0+0xfbfe2214>
    2358:	db002e17 	ldw	r12,184(sp)
    235c:	1805883a 	mov	r2,r3
    2360:	dac02d15 	stw	r11,180(sp)
    2364:	0319c83a 	sub	r12,zero,r12
    2368:	db002e15 	stw	r12,184(sp)
    236c:	003a8206 	br	d78 <__alt_mem_onchip_memory2_0+0xfbfe0d78>
    2370:	18800044 	addi	r2,r3,1
    2374:	8c400814 	ori	r17,r17,32
    2378:	1c000047 	ldb	r16,1(r3)
    237c:	0039e406 	br	b10 <__alt_mem_onchip_memory2_0+0xfbfe0b10>
    2380:	b009883a 	mov	r4,r22
    2384:	b80b883a 	mov	r5,r23
    2388:	d9801e04 	addi	r6,sp,120
    238c:	0007b540 	call	7b54 <__sprint_r>
    2390:	103a6e1e 	bne	r2,zero,d4c <__alt_mem_onchip_memory2_0+0xfbfe0d4c>
    2394:	d8c02017 	ldw	r3,128(sp)
    2398:	da000404 	addi	r8,sp,16
    239c:	003d0c06 	br	17d0 <__alt_mem_onchip_memory2_0+0xfbfe17d0>
    23a0:	db002817 	ldw	r12,160(sp)
    23a4:	d8c03117 	ldw	r3,196(sp)
    23a8:	60e5c83a 	sub	r18,r12,r3
    23ac:	003ac106 	br	eb4 <__alt_mem_onchip_memory2_0+0xfbfe0eb4>
    23b0:	b009883a 	mov	r4,r22
    23b4:	b80b883a 	mov	r5,r23
    23b8:	d9801e04 	addi	r6,sp,120
    23bc:	0007b540 	call	7b54 <__sprint_r>
    23c0:	103a621e 	bne	r2,zero,d4c <__alt_mem_onchip_memory2_0+0xfbfe0d4c>
    23c4:	d8c02017 	ldw	r3,128(sp)
    23c8:	d8801f17 	ldw	r2,124(sp)
    23cc:	da000404 	addi	r8,sp,16
    23d0:	db003317 	ldw	r12,204(sp)
    23d4:	dac03117 	ldw	r11,196(sp)
    23d8:	10800044 	addi	r2,r2,1
    23dc:	1b07883a 	add	r3,r3,r12
    23e0:	42c00015 	stw	r11,0(r8)
    23e4:	43000115 	stw	r12,4(r8)
    23e8:	d8c02015 	stw	r3,128(sp)
    23ec:	d8801f15 	stw	r2,124(sp)
    23f0:	010001c4 	movi	r4,7
    23f4:	20bb460e 	bge	r4,r2,1110 <__alt_mem_onchip_memory2_0+0xfbfe1110>
    23f8:	003d8506 	br	1a10 <__alt_mem_onchip_memory2_0+0xfbfe1a10>
    23fc:	da003f15 	stw	r8,252(sp)
    2400:	00008e40 	call	8e4 <strlen>
    2404:	1025883a 	mov	r18,r2
    2408:	da003f17 	ldw	r8,252(sp)
    240c:	903c540e 	bge	r18,zero,1560 <__alt_mem_onchip_memory2_0+0xfbfe1560>
    2410:	0005883a 	mov	r2,zero
    2414:	003c5206 	br	1560 <__alt_mem_onchip_memory2_0+0xfbfe1560>
    2418:	01000074 	movhi	r4,1
    241c:	213fb284 	addi	r4,r4,-310
    2420:	d9003615 	stw	r4,216(sp)
    2424:	003adc06 	br	f98 <__alt_mem_onchip_memory2_0+0xfbfe0f98>
    2428:	d8802604 	addi	r2,sp,152
    242c:	d8800115 	stw	r2,4(sp)
    2430:	d9403717 	ldw	r5,220(sp)
    2434:	d8802504 	addi	r2,sp,148
    2438:	d8800215 	stw	r2,8(sp)
    243c:	d8802104 	addi	r2,sp,132
    2440:	da400015 	stw	r9,0(sp)
    2444:	d8800315 	stw	r2,12(sp)
    2448:	b009883a 	mov	r4,r22
    244c:	900d883a 	mov	r6,r18
    2450:	01c000c4 	movi	r7,3
    2454:	da003f15 	stw	r8,252(sp)
    2458:	da403e15 	stw	r9,248(sp)
    245c:	0002d000 	call	2d00 <_dtoa_r>
    2460:	da403e17 	ldw	r9,248(sp)
    2464:	da003f17 	ldw	r8,252(sp)
    2468:	d8803115 	stw	r2,196(sp)
    246c:	4839883a 	mov	fp,r9
    2470:	dac03117 	ldw	r11,196(sp)
    2474:	00801184 	movi	r2,70
    2478:	5f15883a 	add	r10,r11,fp
    247c:	a8bef01e 	bne	r21,r2,2040 <__alt_mem_onchip_memory2_0+0xfbfe2040>
    2480:	59000007 	ldb	r4,0(r11)
    2484:	00800c04 	movi	r2,48
    2488:	2080d526 	beq	r4,r2,27e0 <___vfprintf_internal_r+0x1e64>
    248c:	d8c02617 	ldw	r3,152(sp)
    2490:	50d5883a 	add	r10,r10,r3
    2494:	003eea06 	br	2040 <__alt_mem_onchip_memory2_0+0xfbfe2040>
    2498:	0025883a 	mov	r18,zero
    249c:	003db306 	br	1b6c <__alt_mem_onchip_memory2_0+0xfbfe1b6c>
    24a0:	b009883a 	mov	r4,r22
    24a4:	b80b883a 	mov	r5,r23
    24a8:	d9801e04 	addi	r6,sp,120
    24ac:	0007b540 	call	7b54 <__sprint_r>
    24b0:	103a261e 	bne	r2,zero,d4c <__alt_mem_onchip_memory2_0+0xfbfe0d4c>
    24b4:	d8c02017 	ldw	r3,128(sp)
    24b8:	da000404 	addi	r8,sp,16
    24bc:	003daa06 	br	1b68 <__alt_mem_onchip_memory2_0+0xfbfe1b68>
    24c0:	b009883a 	mov	r4,r22
    24c4:	b80b883a 	mov	r5,r23
    24c8:	d9801e04 	addi	r6,sp,120
    24cc:	0007b540 	call	7b54 <__sprint_r>
    24d0:	103a1e1e 	bne	r2,zero,d4c <__alt_mem_onchip_memory2_0+0xfbfe0d4c>
    24d4:	d8802617 	ldw	r2,152(sp)
    24d8:	d8c02017 	ldw	r3,128(sp)
    24dc:	da000404 	addi	r8,sp,16
    24e0:	003e2c06 	br	1d94 <__alt_mem_onchip_memory2_0+0xfbfe1d94>
    24e4:	03000074 	movhi	r12,1
    24e8:	633fae84 	addi	r12,r12,-326
    24ec:	db002c15 	stw	r12,176(sp)
    24f0:	dac02c17 	ldw	r11,176(sp)
    24f4:	1c07883a 	add	r3,r3,r16
    24f8:	10800044 	addi	r2,r2,1
    24fc:	42c00015 	stw	r11,0(r8)
    2500:	44000115 	stw	r16,4(r8)
    2504:	d8c02015 	stw	r3,128(sp)
    2508:	d8801f15 	stw	r2,124(sp)
    250c:	010001c4 	movi	r4,7
    2510:	20bfa716 	blt	r4,r2,23b0 <__alt_mem_onchip_memory2_0+0xfbfe23b0>
    2514:	42000204 	addi	r8,r8,8
    2518:	003fad06 	br	23d0 <__alt_mem_onchip_memory2_0+0xfbfe23d0>
    251c:	00800184 	movi	r2,6
    2520:	1240012e 	bgeu	r2,r9,2528 <___vfprintf_internal_r+0x1bac>
    2524:	1013883a 	mov	r9,r2
    2528:	4825883a 	mov	r18,r9
    252c:	4805883a 	mov	r2,r9
    2530:	4800c216 	blt	r9,zero,283c <___vfprintf_internal_r+0x1ec0>
    2534:	d8802b15 	stw	r2,172(sp)
    2538:	00800074 	movhi	r2,1
    253c:	10bfac04 	addi	r2,r2,-336
    2540:	d8803115 	stw	r2,196(sp)
    2544:	dcc02d15 	stw	r19,180(sp)
    2548:	d8003215 	stw	zero,200(sp)
    254c:	d8003415 	stw	zero,208(sp)
    2550:	0005883a 	mov	r2,zero
    2554:	003a6306 	br	ee4 <__alt_mem_onchip_memory2_0+0xfbfe0ee4>
    2558:	0021883a 	mov	r16,zero
    255c:	003e1f06 	br	1ddc <__alt_mem_onchip_memory2_0+0xfbfe1ddc>
    2560:	b009883a 	mov	r4,r22
    2564:	b80b883a 	mov	r5,r23
    2568:	d9801e04 	addi	r6,sp,120
    256c:	0007b540 	call	7b54 <__sprint_r>
    2570:	1039f61e 	bne	r2,zero,d4c <__alt_mem_onchip_memory2_0+0xfbfe0d4c>
    2574:	d8802617 	ldw	r2,152(sp)
    2578:	db003317 	ldw	r12,204(sp)
    257c:	d8c02017 	ldw	r3,128(sp)
    2580:	da000404 	addi	r8,sp,16
    2584:	6085c83a 	sub	r2,r12,r2
    2588:	003e1306 	br	1dd8 <__alt_mem_onchip_memory2_0+0xfbfe1dd8>
    258c:	03000074 	movhi	r12,1
    2590:	633fb284 	addi	r12,r12,-310
    2594:	db003615 	stw	r12,216(sp)
    2598:	003b0206 	br	11a4 <__alt_mem_onchip_memory2_0+0xfbfe11a4>
    259c:	00c00b44 	movi	r3,45
    25a0:	d8802b15 	stw	r2,172(sp)
    25a4:	dc402d17 	ldw	r17,180(sp)
    25a8:	d8c02785 	stb	r3,158(sp)
    25ac:	dcc02d15 	stw	r19,180(sp)
    25b0:	d8003215 	stw	zero,200(sp)
    25b4:	00800b44 	movi	r2,45
    25b8:	003a4706 	br	ed8 <__alt_mem_onchip_memory2_0+0xfbfe0ed8>
    25bc:	05400b44 	movi	r21,45
    25c0:	dd402785 	stb	r21,158(sp)
    25c4:	003b4706 	br	12e4 <__alt_mem_onchip_memory2_0+0xfbfe12e4>
    25c8:	00800074 	movhi	r2,1
    25cc:	10bfa104 	addi	r2,r2,-380
    25d0:	d8803115 	stw	r2,196(sp)
    25d4:	003f4106 	br	22dc <__alt_mem_onchip_memory2_0+0xfbfe22dc>
    25d8:	d8c02617 	ldw	r3,152(sp)
    25dc:	00bfff44 	movi	r2,-3
    25e0:	18801116 	blt	r3,r2,2628 <___vfprintf_internal_r+0x1cac>
    25e4:	48c01016 	blt	r9,r3,2628 <___vfprintf_internal_r+0x1cac>
    25e8:	d8c03415 	stw	r3,208(sp)
    25ec:	040019c4 	movi	r16,103
    25f0:	003eb206 	br	20bc <__alt_mem_onchip_memory2_0+0xfbfe20bc>
    25f4:	01000074 	movhi	r4,1
    25f8:	213fae84 	addi	r4,r4,-326
    25fc:	d9002c15 	stw	r4,176(sp)
    2600:	003cb106 	br	18c8 <__alt_mem_onchip_memory2_0+0xfbfe18c8>
    2604:	5005883a 	mov	r2,r10
    2608:	003ea106 	br	2090 <__alt_mem_onchip_memory2_0+0xfbfe2090>
    260c:	da402b15 	stw	r9,172(sp)
    2610:	dd402783 	ldbu	r21,158(sp)
    2614:	4825883a 	mov	r18,r9
    2618:	dcc02d15 	stw	r19,180(sp)
    261c:	d8003215 	stw	zero,200(sp)
    2620:	d8003415 	stw	zero,208(sp)
    2624:	003a2806 	br	ec8 <__alt_mem_onchip_memory2_0+0xfbfe0ec8>
    2628:	843fff84 	addi	r16,r16,-2
    262c:	1f3fffc4 	addi	fp,r3,-1
    2630:	df002615 	stw	fp,152(sp)
    2634:	dc0022c5 	stb	r16,139(sp)
    2638:	e0009816 	blt	fp,zero,289c <___vfprintf_internal_r+0x1f20>
    263c:	00800ac4 	movi	r2,43
    2640:	d8802305 	stb	r2,140(sp)
    2644:	00800244 	movi	r2,9
    2648:	1700750e 	bge	r2,fp,2820 <___vfprintf_internal_r+0x1ea4>
    264c:	dd4022c4 	addi	r21,sp,139
    2650:	dc002c15 	stw	r16,176(sp)
    2654:	4025883a 	mov	r18,r8
    2658:	a821883a 	mov	r16,r21
    265c:	e009883a 	mov	r4,fp
    2660:	01400284 	movi	r5,10
    2664:	000a4240 	call	a424 <__modsi3>
    2668:	10800c04 	addi	r2,r2,48
    266c:	843fffc4 	addi	r16,r16,-1
    2670:	e009883a 	mov	r4,fp
    2674:	01400284 	movi	r5,10
    2678:	80800005 	stb	r2,0(r16)
    267c:	000a3d00 	call	a3d0 <__divsi3>
    2680:	1039883a 	mov	fp,r2
    2684:	00800244 	movi	r2,9
    2688:	173ff416 	blt	r2,fp,265c <__alt_mem_onchip_memory2_0+0xfbfe265c>
    268c:	9011883a 	mov	r8,r18
    2690:	e0800c04 	addi	r2,fp,48
    2694:	8025883a 	mov	r18,r16
    2698:	913fffc4 	addi	r4,r18,-1
    269c:	90bfffc5 	stb	r2,-1(r18)
    26a0:	dc002c17 	ldw	r16,176(sp)
    26a4:	2540852e 	bgeu	r4,r21,28bc <___vfprintf_internal_r+0x1f40>
    26a8:	d9402384 	addi	r5,sp,142
    26ac:	2c8bc83a 	sub	r5,r5,r18
    26b0:	d8c02344 	addi	r3,sp,141
    26b4:	a94b883a 	add	r5,r21,r5
    26b8:	00000106 	br	26c0 <___vfprintf_internal_r+0x1d44>
    26bc:	20800003 	ldbu	r2,0(r4)
    26c0:	18800005 	stb	r2,0(r3)
    26c4:	18c00044 	addi	r3,r3,1
    26c8:	21000044 	addi	r4,r4,1
    26cc:	197ffb1e 	bne	r3,r5,26bc <__alt_mem_onchip_memory2_0+0xfbfe26bc>
    26d0:	d8802304 	addi	r2,sp,140
    26d4:	1485c83a 	sub	r2,r2,r18
    26d8:	d8c02344 	addi	r3,sp,141
    26dc:	1885883a 	add	r2,r3,r2
    26e0:	dac03317 	ldw	r11,204(sp)
    26e4:	156bc83a 	sub	r21,r2,r21
    26e8:	dd403a15 	stw	r21,232(sp)
    26ec:	00800044 	movi	r2,1
    26f0:	5d65883a 	add	r18,r11,r21
    26f4:	12c0660e 	bge	r2,r11,2890 <___vfprintf_internal_r+0x1f14>
    26f8:	94800044 	addi	r18,r18,1
    26fc:	9005883a 	mov	r2,r18
    2700:	90006116 	blt	r18,zero,2888 <___vfprintf_internal_r+0x1f0c>
    2704:	d8003415 	stw	zero,208(sp)
    2708:	003e7406 	br	20dc <__alt_mem_onchip_memory2_0+0xfbfe20dc>
    270c:	b009883a 	mov	r4,r22
    2710:	b80b883a 	mov	r5,r23
    2714:	d9801e04 	addi	r6,sp,120
    2718:	0007b540 	call	7b54 <__sprint_r>
    271c:	10398b1e 	bne	r2,zero,d4c <__alt_mem_onchip_memory2_0+0xfbfe0d4c>
    2720:	dc002617 	ldw	r16,152(sp)
    2724:	d8c02017 	ldw	r3,128(sp)
    2728:	d8801f17 	ldw	r2,124(sp)
    272c:	da000404 	addi	r8,sp,16
    2730:	003ec906 	br	2258 <__alt_mem_onchip_memory2_0+0xfbfe2258>
    2734:	483e1c1e 	bne	r9,zero,1fa8 <__alt_mem_onchip_memory2_0+0xfbfe1fa8>
    2738:	9013883a 	mov	r9,r18
    273c:	003e1a06 	br	1fa8 <__alt_mem_onchip_memory2_0+0xfbfe1fa8>
    2740:	02400184 	movi	r9,6
    2744:	003e1806 	br	1fa8 <__alt_mem_onchip_memory2_0+0xfbfe1fa8>
    2748:	d8c03417 	ldw	r3,208(sp)
    274c:	00c04b0e 	bge	zero,r3,287c <___vfprintf_internal_r+0x1f00>
    2750:	04800044 	movi	r18,1
    2754:	dac03317 	ldw	r11,204(sp)
    2758:	92e5883a 	add	r18,r18,r11
    275c:	9005883a 	mov	r2,r18
    2760:	903e5e0e 	bge	r18,zero,20dc <__alt_mem_onchip_memory2_0+0xfbfe20dc>
    2764:	0005883a 	mov	r2,zero
    2768:	003e5c06 	br	20dc <__alt_mem_onchip_memory2_0+0xfbfe20dc>
    276c:	00c00b44 	movi	r3,45
    2770:	64a0003c 	xorhi	r18,r12,32768
    2774:	d8c02b05 	stb	r3,172(sp)
    2778:	003e1106 	br	1fc0 <__alt_mem_onchip_memory2_0+0xfbfe1fc0>
    277c:	4f000044 	addi	fp,r9,1
    2780:	003e1606 	br	1fdc <__alt_mem_onchip_memory2_0+0xfbfe1fdc>
    2784:	d8c02617 	ldw	r3,152(sp)
    2788:	d8c03415 	stw	r3,208(sp)
    278c:	00c0350e 	bge	zero,r3,2864 <___vfprintf_internal_r+0x1ee8>
    2790:	4800081e 	bne	r9,zero,27b4 <___vfprintf_internal_r+0x1e38>
    2794:	8c40004c 	andi	r17,r17,1
    2798:	8800061e 	bne	r17,zero,27b4 <___vfprintf_internal_r+0x1e38>
    279c:	1805883a 	mov	r2,r3
    27a0:	183e4d0e 	bge	r3,zero,20d8 <__alt_mem_onchip_memory2_0+0xfbfe20d8>
    27a4:	0005883a 	mov	r2,zero
    27a8:	003e4b06 	br	20d8 <__alt_mem_onchip_memory2_0+0xfbfe20d8>
    27ac:	d8802117 	ldw	r2,132(sp)
    27b0:	003e3706 	br	2090 <__alt_mem_onchip_memory2_0+0xfbfe2090>
    27b4:	dac03417 	ldw	r11,208(sp)
    27b8:	4a400044 	addi	r9,r9,1
    27bc:	5a65883a 	add	r18,r11,r9
    27c0:	9005883a 	mov	r2,r18
    27c4:	903e450e 	bge	r18,zero,20dc <__alt_mem_onchip_memory2_0+0xfbfe20dc>
    27c8:	003fe606 	br	2764 <__alt_mem_onchip_memory2_0+0xfbfe2764>
    27cc:	db003417 	ldw	r12,208(sp)
    27d0:	64800044 	addi	r18,r12,1
    27d4:	9005883a 	mov	r2,r18
    27d8:	903e400e 	bge	r18,zero,20dc <__alt_mem_onchip_memory2_0+0xfbfe20dc>
    27dc:	003fe106 	br	2764 <__alt_mem_onchip_memory2_0+0xfbfe2764>
    27e0:	d9003717 	ldw	r4,220(sp)
    27e4:	900b883a 	mov	r5,r18
    27e8:	000d883a 	mov	r6,zero
    27ec:	000f883a 	mov	r7,zero
    27f0:	da003f15 	stw	r8,252(sp)
    27f4:	da403e15 	stw	r9,248(sp)
    27f8:	da803d15 	stw	r10,244(sp)
    27fc:	000b5f80 	call	b5f8 <__eqdf2>
    2800:	da003f17 	ldw	r8,252(sp)
    2804:	da403e17 	ldw	r9,248(sp)
    2808:	da803d17 	ldw	r10,244(sp)
    280c:	103f1f26 	beq	r2,zero,248c <__alt_mem_onchip_memory2_0+0xfbfe248c>
    2810:	00800044 	movi	r2,1
    2814:	1707c83a 	sub	r3,r2,fp
    2818:	d8c02615 	stw	r3,152(sp)
    281c:	003f1c06 	br	2490 <__alt_mem_onchip_memory2_0+0xfbfe2490>
    2820:	00800c04 	movi	r2,48
    2824:	e0c00c04 	addi	r3,fp,48
    2828:	d8802345 	stb	r2,141(sp)
    282c:	d8c02385 	stb	r3,142(sp)
    2830:	d88023c4 	addi	r2,sp,143
    2834:	dd4022c4 	addi	r21,sp,139
    2838:	003fa906 	br	26e0 <__alt_mem_onchip_memory2_0+0xfbfe26e0>
    283c:	0005883a 	mov	r2,zero
    2840:	003f3c06 	br	2534 <__alt_mem_onchip_memory2_0+0xfbfe2534>
    2844:	dac02d17 	ldw	r11,180(sp)
    2848:	5a400017 	ldw	r9,0(r11)
    284c:	5ac00104 	addi	r11,r11,4
    2850:	dac02d15 	stw	r11,180(sp)
    2854:	483ec80e 	bge	r9,zero,2378 <__alt_mem_onchip_memory2_0+0xfbfe2378>
    2858:	027fffc4 	movi	r9,-1
    285c:	1c000047 	ldb	r16,1(r3)
    2860:	0038ab06 	br	b10 <__alt_mem_onchip_memory2_0+0xfbfe0b10>
    2864:	4800111e 	bne	r9,zero,28ac <___vfprintf_internal_r+0x1f30>
    2868:	8c40004c 	andi	r17,r17,1
    286c:	88000f1e 	bne	r17,zero,28ac <___vfprintf_internal_r+0x1f30>
    2870:	00800044 	movi	r2,1
    2874:	1025883a 	mov	r18,r2
    2878:	003e1806 	br	20dc <__alt_mem_onchip_memory2_0+0xfbfe20dc>
    287c:	04800084 	movi	r18,2
    2880:	90e5c83a 	sub	r18,r18,r3
    2884:	003fb306 	br	2754 <__alt_mem_onchip_memory2_0+0xfbfe2754>
    2888:	0005883a 	mov	r2,zero
    288c:	003f9d06 	br	2704 <__alt_mem_onchip_memory2_0+0xfbfe2704>
    2890:	88a2703a 	and	r17,r17,r2
    2894:	883f9926 	beq	r17,zero,26fc <__alt_mem_onchip_memory2_0+0xfbfe26fc>
    2898:	003f9706 	br	26f8 <__alt_mem_onchip_memory2_0+0xfbfe26f8>
    289c:	00800b44 	movi	r2,45
    28a0:	0739c83a 	sub	fp,zero,fp
    28a4:	d8802305 	stb	r2,140(sp)
    28a8:	003f6606 	br	2644 <__alt_mem_onchip_memory2_0+0xfbfe2644>
    28ac:	4c800084 	addi	r18,r9,2
    28b0:	9005883a 	mov	r2,r18
    28b4:	903e090e 	bge	r18,zero,20dc <__alt_mem_onchip_memory2_0+0xfbfe20dc>
    28b8:	003faa06 	br	2764 <__alt_mem_onchip_memory2_0+0xfbfe2764>
    28bc:	d8802344 	addi	r2,sp,141
    28c0:	003f8706 	br	26e0 <__alt_mem_onchip_memory2_0+0xfbfe26e0>
    28c4:	d8c02617 	ldw	r3,152(sp)
    28c8:	003f5806 	br	262c <__alt_mem_onchip_memory2_0+0xfbfe262c>

000028cc <__vfprintf_internal>:
    28cc:	2007883a 	mov	r3,r4
    28d0:	01000074 	movhi	r4,1
    28d4:	21074e04 	addi	r4,r4,7480
    28d8:	21000017 	ldw	r4,0(r4)
    28dc:	2805883a 	mov	r2,r5
    28e0:	300f883a 	mov	r7,r6
    28e4:	180b883a 	mov	r5,r3
    28e8:	100d883a 	mov	r6,r2
    28ec:	000097c1 	jmpi	97c <___vfprintf_internal_r>

000028f0 <__sbprintf>:
    28f0:	2880030b 	ldhu	r2,12(r5)
    28f4:	2ac01917 	ldw	r11,100(r5)
    28f8:	2a80038b 	ldhu	r10,14(r5)
    28fc:	2a400717 	ldw	r9,28(r5)
    2900:	2a000917 	ldw	r8,36(r5)
    2904:	defee204 	addi	sp,sp,-1144
    2908:	00c10004 	movi	r3,1024
    290c:	dc011a15 	stw	r16,1128(sp)
    2910:	10bfff4c 	andi	r2,r2,65533
    2914:	2821883a 	mov	r16,r5
    2918:	d8cb883a 	add	r5,sp,r3
    291c:	dc811c15 	stw	r18,1136(sp)
    2920:	dc411b15 	stw	r17,1132(sp)
    2924:	dfc11d15 	stw	ra,1140(sp)
    2928:	2025883a 	mov	r18,r4
    292c:	d881030d 	sth	r2,1036(sp)
    2930:	dac11915 	stw	r11,1124(sp)
    2934:	da81038d 	sth	r10,1038(sp)
    2938:	da410715 	stw	r9,1052(sp)
    293c:	da010915 	stw	r8,1060(sp)
    2940:	dec10015 	stw	sp,1024(sp)
    2944:	dec10415 	stw	sp,1040(sp)
    2948:	d8c10215 	stw	r3,1032(sp)
    294c:	d8c10515 	stw	r3,1044(sp)
    2950:	d8010615 	stw	zero,1048(sp)
    2954:	000097c0 	call	97c <___vfprintf_internal_r>
    2958:	1023883a 	mov	r17,r2
    295c:	10000416 	blt	r2,zero,2970 <__sbprintf+0x80>
    2960:	9009883a 	mov	r4,r18
    2964:	d9410004 	addi	r5,sp,1024
    2968:	00046300 	call	4630 <_fflush_r>
    296c:	10000d1e 	bne	r2,zero,29a4 <__sbprintf+0xb4>
    2970:	d8c1030b 	ldhu	r3,1036(sp)
    2974:	18c0100c 	andi	r3,r3,64
    2978:	18000326 	beq	r3,zero,2988 <__sbprintf+0x98>
    297c:	8080030b 	ldhu	r2,12(r16)
    2980:	10801014 	ori	r2,r2,64
    2984:	8080030d 	sth	r2,12(r16)
    2988:	8805883a 	mov	r2,r17
    298c:	dfc11d17 	ldw	ra,1140(sp)
    2990:	dc811c17 	ldw	r18,1136(sp)
    2994:	dc411b17 	ldw	r17,1132(sp)
    2998:	dc011a17 	ldw	r16,1128(sp)
    299c:	dec11e04 	addi	sp,sp,1144
    29a0:	f800283a 	ret
    29a4:	047fffc4 	movi	r17,-1
    29a8:	003ff106 	br	2970 <__alt_mem_onchip_memory2_0+0xfbfe2970>

000029ac <__swsetup_r>:
    29ac:	00800074 	movhi	r2,1
    29b0:	defffd04 	addi	sp,sp,-12
    29b4:	10874e04 	addi	r2,r2,7480
    29b8:	dc400115 	stw	r17,4(sp)
    29bc:	2023883a 	mov	r17,r4
    29c0:	11000017 	ldw	r4,0(r2)
    29c4:	dc000015 	stw	r16,0(sp)
    29c8:	dfc00215 	stw	ra,8(sp)
    29cc:	2821883a 	mov	r16,r5
    29d0:	20000226 	beq	r4,zero,29dc <__swsetup_r+0x30>
    29d4:	20c00e17 	ldw	r3,56(r4)
    29d8:	18003126 	beq	r3,zero,2aa0 <__swsetup_r+0xf4>
    29dc:	8080030b 	ldhu	r2,12(r16)
    29e0:	10c0020c 	andi	r3,r2,8
    29e4:	100d883a 	mov	r6,r2
    29e8:	18000f26 	beq	r3,zero,2a28 <__swsetup_r+0x7c>
    29ec:	80c00417 	ldw	r3,16(r16)
    29f0:	18001526 	beq	r3,zero,2a48 <__swsetup_r+0x9c>
    29f4:	1100004c 	andi	r4,r2,1
    29f8:	20001c1e 	bne	r4,zero,2a6c <__swsetup_r+0xc0>
    29fc:	1080008c 	andi	r2,r2,2
    2a00:	1000291e 	bne	r2,zero,2aa8 <__swsetup_r+0xfc>
    2a04:	80800517 	ldw	r2,20(r16)
    2a08:	80800215 	stw	r2,8(r16)
    2a0c:	18001c26 	beq	r3,zero,2a80 <__swsetup_r+0xd4>
    2a10:	0005883a 	mov	r2,zero
    2a14:	dfc00217 	ldw	ra,8(sp)
    2a18:	dc400117 	ldw	r17,4(sp)
    2a1c:	dc000017 	ldw	r16,0(sp)
    2a20:	dec00304 	addi	sp,sp,12
    2a24:	f800283a 	ret
    2a28:	3080040c 	andi	r2,r6,16
    2a2c:	10002e26 	beq	r2,zero,2ae8 <__swsetup_r+0x13c>
    2a30:	3080010c 	andi	r2,r6,4
    2a34:	10001e1e 	bne	r2,zero,2ab0 <__swsetup_r+0x104>
    2a38:	80c00417 	ldw	r3,16(r16)
    2a3c:	30800214 	ori	r2,r6,8
    2a40:	8080030d 	sth	r2,12(r16)
    2a44:	183feb1e 	bne	r3,zero,29f4 <__alt_mem_onchip_memory2_0+0xfbfe29f4>
    2a48:	1140a00c 	andi	r5,r2,640
    2a4c:	01008004 	movi	r4,512
    2a50:	293fe826 	beq	r5,r4,29f4 <__alt_mem_onchip_memory2_0+0xfbfe29f4>
    2a54:	8809883a 	mov	r4,r17
    2a58:	800b883a 	mov	r5,r16
    2a5c:	00055980 	call	5598 <__smakebuf_r>
    2a60:	8080030b 	ldhu	r2,12(r16)
    2a64:	80c00417 	ldw	r3,16(r16)
    2a68:	003fe206 	br	29f4 <__alt_mem_onchip_memory2_0+0xfbfe29f4>
    2a6c:	80800517 	ldw	r2,20(r16)
    2a70:	80000215 	stw	zero,8(r16)
    2a74:	0085c83a 	sub	r2,zero,r2
    2a78:	80800615 	stw	r2,24(r16)
    2a7c:	183fe41e 	bne	r3,zero,2a10 <__alt_mem_onchip_memory2_0+0xfbfe2a10>
    2a80:	80c0030b 	ldhu	r3,12(r16)
    2a84:	0005883a 	mov	r2,zero
    2a88:	1900200c 	andi	r4,r3,128
    2a8c:	203fe126 	beq	r4,zero,2a14 <__alt_mem_onchip_memory2_0+0xfbfe2a14>
    2a90:	18c01014 	ori	r3,r3,64
    2a94:	80c0030d 	sth	r3,12(r16)
    2a98:	00bfffc4 	movi	r2,-1
    2a9c:	003fdd06 	br	2a14 <__alt_mem_onchip_memory2_0+0xfbfe2a14>
    2aa0:	0004a0c0 	call	4a0c <__sinit>
    2aa4:	003fcd06 	br	29dc <__alt_mem_onchip_memory2_0+0xfbfe29dc>
    2aa8:	0005883a 	mov	r2,zero
    2aac:	003fd606 	br	2a08 <__alt_mem_onchip_memory2_0+0xfbfe2a08>
    2ab0:	81400c17 	ldw	r5,48(r16)
    2ab4:	28000626 	beq	r5,zero,2ad0 <__swsetup_r+0x124>
    2ab8:	80801004 	addi	r2,r16,64
    2abc:	28800326 	beq	r5,r2,2acc <__swsetup_r+0x120>
    2ac0:	8809883a 	mov	r4,r17
    2ac4:	0004b800 	call	4b80 <_free_r>
    2ac8:	8180030b 	ldhu	r6,12(r16)
    2acc:	80000c15 	stw	zero,48(r16)
    2ad0:	80c00417 	ldw	r3,16(r16)
    2ad4:	00bff6c4 	movi	r2,-37
    2ad8:	118c703a 	and	r6,r2,r6
    2adc:	80000115 	stw	zero,4(r16)
    2ae0:	80c00015 	stw	r3,0(r16)
    2ae4:	003fd506 	br	2a3c <__alt_mem_onchip_memory2_0+0xfbfe2a3c>
    2ae8:	00800244 	movi	r2,9
    2aec:	88800015 	stw	r2,0(r17)
    2af0:	30801014 	ori	r2,r6,64
    2af4:	8080030d 	sth	r2,12(r16)
    2af8:	00bfffc4 	movi	r2,-1
    2afc:	003fc506 	br	2a14 <__alt_mem_onchip_memory2_0+0xfbfe2a14>

00002b00 <quorem>:
    2b00:	defff704 	addi	sp,sp,-36
    2b04:	dc800215 	stw	r18,8(sp)
    2b08:	20800417 	ldw	r2,16(r4)
    2b0c:	2c800417 	ldw	r18,16(r5)
    2b10:	dfc00815 	stw	ra,32(sp)
    2b14:	ddc00715 	stw	r23,28(sp)
    2b18:	dd800615 	stw	r22,24(sp)
    2b1c:	dd400515 	stw	r21,20(sp)
    2b20:	dd000415 	stw	r20,16(sp)
    2b24:	dcc00315 	stw	r19,12(sp)
    2b28:	dc400115 	stw	r17,4(sp)
    2b2c:	dc000015 	stw	r16,0(sp)
    2b30:	14807116 	blt	r2,r18,2cf8 <quorem+0x1f8>
    2b34:	94bfffc4 	addi	r18,r18,-1
    2b38:	94ad883a 	add	r22,r18,r18
    2b3c:	b5ad883a 	add	r22,r22,r22
    2b40:	2c400504 	addi	r17,r5,20
    2b44:	8da9883a 	add	r20,r17,r22
    2b48:	25400504 	addi	r21,r4,20
    2b4c:	282f883a 	mov	r23,r5
    2b50:	adad883a 	add	r22,r21,r22
    2b54:	a1400017 	ldw	r5,0(r20)
    2b58:	2021883a 	mov	r16,r4
    2b5c:	b1000017 	ldw	r4,0(r22)
    2b60:	29400044 	addi	r5,r5,1
    2b64:	000a4800 	call	a480 <__udivsi3>
    2b68:	1027883a 	mov	r19,r2
    2b6c:	10002c26 	beq	r2,zero,2c20 <quorem+0x120>
    2b70:	a813883a 	mov	r9,r21
    2b74:	8811883a 	mov	r8,r17
    2b78:	0009883a 	mov	r4,zero
    2b7c:	000d883a 	mov	r6,zero
    2b80:	41c00017 	ldw	r7,0(r8)
    2b84:	49400017 	ldw	r5,0(r9)
    2b88:	42000104 	addi	r8,r8,4
    2b8c:	38bfffcc 	andi	r2,r7,65535
    2b90:	14c5383a 	mul	r2,r2,r19
    2b94:	380ed43a 	srli	r7,r7,16
    2b98:	28ffffcc 	andi	r3,r5,65535
    2b9c:	2085883a 	add	r2,r4,r2
    2ba0:	1008d43a 	srli	r4,r2,16
    2ba4:	3ccf383a 	mul	r7,r7,r19
    2ba8:	198d883a 	add	r6,r3,r6
    2bac:	10ffffcc 	andi	r3,r2,65535
    2bb0:	30c7c83a 	sub	r3,r6,r3
    2bb4:	280ad43a 	srli	r5,r5,16
    2bb8:	21c9883a 	add	r4,r4,r7
    2bbc:	180dd43a 	srai	r6,r3,16
    2bc0:	20bfffcc 	andi	r2,r4,65535
    2bc4:	288bc83a 	sub	r5,r5,r2
    2bc8:	298b883a 	add	r5,r5,r6
    2bcc:	280e943a 	slli	r7,r5,16
    2bd0:	18ffffcc 	andi	r3,r3,65535
    2bd4:	2008d43a 	srli	r4,r4,16
    2bd8:	38ceb03a 	or	r7,r7,r3
    2bdc:	49c00015 	stw	r7,0(r9)
    2be0:	280dd43a 	srai	r6,r5,16
    2be4:	4a400104 	addi	r9,r9,4
    2be8:	a23fe52e 	bgeu	r20,r8,2b80 <__alt_mem_onchip_memory2_0+0xfbfe2b80>
    2bec:	b0800017 	ldw	r2,0(r22)
    2bf0:	10000b1e 	bne	r2,zero,2c20 <quorem+0x120>
    2bf4:	b0bfff04 	addi	r2,r22,-4
    2bf8:	a880082e 	bgeu	r21,r2,2c1c <quorem+0x11c>
    2bfc:	b0ffff17 	ldw	r3,-4(r22)
    2c00:	18000326 	beq	r3,zero,2c10 <quorem+0x110>
    2c04:	00000506 	br	2c1c <quorem+0x11c>
    2c08:	10c00017 	ldw	r3,0(r2)
    2c0c:	1800031e 	bne	r3,zero,2c1c <quorem+0x11c>
    2c10:	10bfff04 	addi	r2,r2,-4
    2c14:	94bfffc4 	addi	r18,r18,-1
    2c18:	a8bffb36 	bltu	r21,r2,2c08 <__alt_mem_onchip_memory2_0+0xfbfe2c08>
    2c1c:	84800415 	stw	r18,16(r16)
    2c20:	8009883a 	mov	r4,r16
    2c24:	b80b883a 	mov	r5,r23
    2c28:	0006a100 	call	6a10 <__mcmp>
    2c2c:	10002616 	blt	r2,zero,2cc8 <quorem+0x1c8>
    2c30:	9cc00044 	addi	r19,r19,1
    2c34:	a80d883a 	mov	r6,r21
    2c38:	000b883a 	mov	r5,zero
    2c3c:	31000017 	ldw	r4,0(r6)
    2c40:	88800017 	ldw	r2,0(r17)
    2c44:	31800104 	addi	r6,r6,4
    2c48:	20ffffcc 	andi	r3,r4,65535
    2c4c:	194b883a 	add	r5,r3,r5
    2c50:	10ffffcc 	andi	r3,r2,65535
    2c54:	28c7c83a 	sub	r3,r5,r3
    2c58:	1004d43a 	srli	r2,r2,16
    2c5c:	2008d43a 	srli	r4,r4,16
    2c60:	180bd43a 	srai	r5,r3,16
    2c64:	18ffffcc 	andi	r3,r3,65535
    2c68:	2089c83a 	sub	r4,r4,r2
    2c6c:	2149883a 	add	r4,r4,r5
    2c70:	2004943a 	slli	r2,r4,16
    2c74:	8c400104 	addi	r17,r17,4
    2c78:	200bd43a 	srai	r5,r4,16
    2c7c:	10c6b03a 	or	r3,r2,r3
    2c80:	30ffff15 	stw	r3,-4(r6)
    2c84:	a47fed2e 	bgeu	r20,r17,2c3c <__alt_mem_onchip_memory2_0+0xfbfe2c3c>
    2c88:	9485883a 	add	r2,r18,r18
    2c8c:	1085883a 	add	r2,r2,r2
    2c90:	a887883a 	add	r3,r21,r2
    2c94:	18800017 	ldw	r2,0(r3)
    2c98:	10000b1e 	bne	r2,zero,2cc8 <quorem+0x1c8>
    2c9c:	18bfff04 	addi	r2,r3,-4
    2ca0:	a880082e 	bgeu	r21,r2,2cc4 <quorem+0x1c4>
    2ca4:	18ffff17 	ldw	r3,-4(r3)
    2ca8:	18000326 	beq	r3,zero,2cb8 <quorem+0x1b8>
    2cac:	00000506 	br	2cc4 <quorem+0x1c4>
    2cb0:	10c00017 	ldw	r3,0(r2)
    2cb4:	1800031e 	bne	r3,zero,2cc4 <quorem+0x1c4>
    2cb8:	10bfff04 	addi	r2,r2,-4
    2cbc:	94bfffc4 	addi	r18,r18,-1
    2cc0:	a8bffb36 	bltu	r21,r2,2cb0 <__alt_mem_onchip_memory2_0+0xfbfe2cb0>
    2cc4:	84800415 	stw	r18,16(r16)
    2cc8:	9805883a 	mov	r2,r19
    2ccc:	dfc00817 	ldw	ra,32(sp)
    2cd0:	ddc00717 	ldw	r23,28(sp)
    2cd4:	dd800617 	ldw	r22,24(sp)
    2cd8:	dd400517 	ldw	r21,20(sp)
    2cdc:	dd000417 	ldw	r20,16(sp)
    2ce0:	dcc00317 	ldw	r19,12(sp)
    2ce4:	dc800217 	ldw	r18,8(sp)
    2ce8:	dc400117 	ldw	r17,4(sp)
    2cec:	dc000017 	ldw	r16,0(sp)
    2cf0:	dec00904 	addi	sp,sp,36
    2cf4:	f800283a 	ret
    2cf8:	0005883a 	mov	r2,zero
    2cfc:	003ff306 	br	2ccc <__alt_mem_onchip_memory2_0+0xfbfe2ccc>

00002d00 <_dtoa_r>:
    2d00:	20801017 	ldw	r2,64(r4)
    2d04:	deffde04 	addi	sp,sp,-136
    2d08:	dd401d15 	stw	r21,116(sp)
    2d0c:	dcc01b15 	stw	r19,108(sp)
    2d10:	dc801a15 	stw	r18,104(sp)
    2d14:	dc401915 	stw	r17,100(sp)
    2d18:	dc001815 	stw	r16,96(sp)
    2d1c:	dfc02115 	stw	ra,132(sp)
    2d20:	df002015 	stw	fp,128(sp)
    2d24:	ddc01f15 	stw	r23,124(sp)
    2d28:	dd801e15 	stw	r22,120(sp)
    2d2c:	dd001c15 	stw	r20,112(sp)
    2d30:	d9c00315 	stw	r7,12(sp)
    2d34:	2021883a 	mov	r16,r4
    2d38:	302b883a 	mov	r21,r6
    2d3c:	2825883a 	mov	r18,r5
    2d40:	dc402417 	ldw	r17,144(sp)
    2d44:	3027883a 	mov	r19,r6
    2d48:	10000826 	beq	r2,zero,2d6c <_dtoa_r+0x6c>
    2d4c:	21801117 	ldw	r6,68(r4)
    2d50:	00c00044 	movi	r3,1
    2d54:	100b883a 	mov	r5,r2
    2d58:	1986983a 	sll	r3,r3,r6
    2d5c:	11800115 	stw	r6,4(r2)
    2d60:	10c00215 	stw	r3,8(r2)
    2d64:	00061e40 	call	61e4 <_Bfree>
    2d68:	80001015 	stw	zero,64(r16)
    2d6c:	a8002d16 	blt	r21,zero,2e24 <_dtoa_r+0x124>
    2d70:	88000015 	stw	zero,0(r17)
    2d74:	a8dffc2c 	andhi	r3,r21,32752
    2d78:	009ffc34 	movhi	r2,32752
    2d7c:	18801b26 	beq	r3,r2,2dec <_dtoa_r+0xec>
    2d80:	9009883a 	mov	r4,r18
    2d84:	980b883a 	mov	r5,r19
    2d88:	000d883a 	mov	r6,zero
    2d8c:	000f883a 	mov	r7,zero
    2d90:	000b5f80 	call	b5f8 <__eqdf2>
    2d94:	10002a1e 	bne	r2,zero,2e40 <_dtoa_r+0x140>
    2d98:	d8c02317 	ldw	r3,140(sp)
    2d9c:	d9002517 	ldw	r4,148(sp)
    2da0:	00800044 	movi	r2,1
    2da4:	18800015 	stw	r2,0(r3)
    2da8:	2001a226 	beq	r4,zero,3434 <_dtoa_r+0x734>
    2dac:	00800074 	movhi	r2,1
    2db0:	10bfae44 	addi	r2,r2,-327
    2db4:	20800015 	stw	r2,0(r4)
    2db8:	10bfffc4 	addi	r2,r2,-1
    2dbc:	dfc02117 	ldw	ra,132(sp)
    2dc0:	df002017 	ldw	fp,128(sp)
    2dc4:	ddc01f17 	ldw	r23,124(sp)
    2dc8:	dd801e17 	ldw	r22,120(sp)
    2dcc:	dd401d17 	ldw	r21,116(sp)
    2dd0:	dd001c17 	ldw	r20,112(sp)
    2dd4:	dcc01b17 	ldw	r19,108(sp)
    2dd8:	dc801a17 	ldw	r18,104(sp)
    2ddc:	dc401917 	ldw	r17,100(sp)
    2de0:	dc001817 	ldw	r16,96(sp)
    2de4:	dec02204 	addi	sp,sp,136
    2de8:	f800283a 	ret
    2dec:	d8c02317 	ldw	r3,140(sp)
    2df0:	0089c3c4 	movi	r2,9999
    2df4:	18800015 	stw	r2,0(r3)
    2df8:	90017c26 	beq	r18,zero,33ec <_dtoa_r+0x6ec>
    2dfc:	00800074 	movhi	r2,1
    2e00:	10bfba04 	addi	r2,r2,-280
    2e04:	d9002517 	ldw	r4,148(sp)
    2e08:	203fec26 	beq	r4,zero,2dbc <__alt_mem_onchip_memory2_0+0xfbfe2dbc>
    2e0c:	10c000c7 	ldb	r3,3(r2)
    2e10:	18017d1e 	bne	r3,zero,3408 <_dtoa_r+0x708>
    2e14:	10c000c4 	addi	r3,r2,3
    2e18:	d9802517 	ldw	r6,148(sp)
    2e1c:	30c00015 	stw	r3,0(r6)
    2e20:	003fe606 	br	2dbc <__alt_mem_onchip_memory2_0+0xfbfe2dbc>
    2e24:	04e00034 	movhi	r19,32768
    2e28:	9cffffc4 	addi	r19,r19,-1
    2e2c:	00800044 	movi	r2,1
    2e30:	ace6703a 	and	r19,r21,r19
    2e34:	88800015 	stw	r2,0(r17)
    2e38:	982b883a 	mov	r21,r19
    2e3c:	003fcd06 	br	2d74 <__alt_mem_onchip_memory2_0+0xfbfe2d74>
    2e40:	d8800204 	addi	r2,sp,8
    2e44:	a822d53a 	srli	r17,r21,20
    2e48:	d8800015 	stw	r2,0(sp)
    2e4c:	8009883a 	mov	r4,r16
    2e50:	900b883a 	mov	r5,r18
    2e54:	980d883a 	mov	r6,r19
    2e58:	d9c00104 	addi	r7,sp,4
    2e5c:	0006d840 	call	6d84 <__d2b>
    2e60:	1039883a 	mov	fp,r2
    2e64:	88016a1e 	bne	r17,zero,3410 <_dtoa_r+0x710>
    2e68:	dd000217 	ldw	r20,8(sp)
    2e6c:	dc400117 	ldw	r17,4(sp)
    2e70:	00befbc4 	movi	r2,-1041
    2e74:	a463883a 	add	r17,r20,r17
    2e78:	8882ea16 	blt	r17,r2,3a24 <_dtoa_r+0xd24>
    2e7c:	00bf0384 	movi	r2,-1010
    2e80:	1445c83a 	sub	r2,r2,r17
    2e84:	89010484 	addi	r4,r17,1042
    2e88:	a8aa983a 	sll	r21,r21,r2
    2e8c:	9108d83a 	srl	r4,r18,r4
    2e90:	a908b03a 	or	r4,r21,r4
    2e94:	000c9880 	call	c988 <__floatunsidf>
    2e98:	017f8434 	movhi	r5,65040
    2e9c:	01800044 	movi	r6,1
    2ea0:	1009883a 	mov	r4,r2
    2ea4:	194b883a 	add	r5,r3,r5
    2ea8:	8c7fffc4 	addi	r17,r17,-1
    2eac:	d9800f15 	stw	r6,60(sp)
    2eb0:	000d883a 	mov	r6,zero
    2eb4:	01cffe34 	movhi	r7,16376
    2eb8:	000bf600 	call	bf60 <__subdf3>
    2ebc:	0198dbf4 	movhi	r6,25455
    2ec0:	01cff4f4 	movhi	r7,16339
    2ec4:	1009883a 	mov	r4,r2
    2ec8:	180b883a 	mov	r5,r3
    2ecc:	3190d844 	addi	r6,r6,17249
    2ed0:	39e1e9c4 	addi	r7,r7,-30809
    2ed4:	000b83c0 	call	b83c <__muldf3>
    2ed8:	01a2d874 	movhi	r6,35681
    2edc:	01cff1f4 	movhi	r7,16327
    2ee0:	180b883a 	mov	r5,r3
    2ee4:	31b22cc4 	addi	r6,r6,-14157
    2ee8:	39e28a04 	addi	r7,r7,-30168
    2eec:	1009883a 	mov	r4,r2
    2ef0:	000a4900 	call	a490 <__adddf3>
    2ef4:	8809883a 	mov	r4,r17
    2ef8:	102d883a 	mov	r22,r2
    2efc:	182b883a 	mov	r21,r3
    2f00:	000c8b80 	call	c8b8 <__floatsidf>
    2f04:	019427f4 	movhi	r6,20639
    2f08:	01cff4f4 	movhi	r7,16339
    2f0c:	1009883a 	mov	r4,r2
    2f10:	180b883a 	mov	r5,r3
    2f14:	319e7ec4 	addi	r6,r6,31227
    2f18:	39d104c4 	addi	r7,r7,17427
    2f1c:	000b83c0 	call	b83c <__muldf3>
    2f20:	b009883a 	mov	r4,r22
    2f24:	a80b883a 	mov	r5,r21
    2f28:	100d883a 	mov	r6,r2
    2f2c:	180f883a 	mov	r7,r3
    2f30:	000a4900 	call	a490 <__adddf3>
    2f34:	1009883a 	mov	r4,r2
    2f38:	180b883a 	mov	r5,r3
    2f3c:	102d883a 	mov	r22,r2
    2f40:	182b883a 	mov	r21,r3
    2f44:	000c8300 	call	c830 <__fixdfsi>
    2f48:	b009883a 	mov	r4,r22
    2f4c:	a80b883a 	mov	r5,r21
    2f50:	000d883a 	mov	r6,zero
    2f54:	000f883a 	mov	r7,zero
    2f58:	d8800515 	stw	r2,20(sp)
    2f5c:	000b75c0 	call	b75c <__ledf2>
    2f60:	10023116 	blt	r2,zero,3828 <_dtoa_r+0xb28>
    2f64:	d8c00517 	ldw	r3,20(sp)
    2f68:	00800584 	movi	r2,22
    2f6c:	10c21f36 	bltu	r2,r3,37ec <_dtoa_r+0xaec>
    2f70:	180490fa 	slli	r2,r3,3
    2f74:	00c00074 	movhi	r3,1
    2f78:	18ffd604 	addi	r3,r3,-168
    2f7c:	1885883a 	add	r2,r3,r2
    2f80:	11000017 	ldw	r4,0(r2)
    2f84:	11400117 	ldw	r5,4(r2)
    2f88:	900d883a 	mov	r6,r18
    2f8c:	980f883a 	mov	r7,r19
    2f90:	000b67c0 	call	b67c <__gedf2>
    2f94:	0082a70e 	bge	zero,r2,3a34 <_dtoa_r+0xd34>
    2f98:	d9000517 	ldw	r4,20(sp)
    2f9c:	d8000d15 	stw	zero,52(sp)
    2fa0:	213fffc4 	addi	r4,r4,-1
    2fa4:	d9000515 	stw	r4,20(sp)
    2fa8:	a463c83a 	sub	r17,r20,r17
    2fac:	8dbfffc4 	addi	r22,r17,-1
    2fb0:	b0021916 	blt	r22,zero,3818 <_dtoa_r+0xb18>
    2fb4:	d8000815 	stw	zero,32(sp)
    2fb8:	d8800517 	ldw	r2,20(sp)
    2fbc:	10020e16 	blt	r2,zero,37f8 <_dtoa_r+0xaf8>
    2fc0:	b0ad883a 	add	r22,r22,r2
    2fc4:	d8800a15 	stw	r2,40(sp)
    2fc8:	d8000915 	stw	zero,36(sp)
    2fcc:	d8c00317 	ldw	r3,12(sp)
    2fd0:	00800244 	movi	r2,9
    2fd4:	10c11a36 	bltu	r2,r3,3440 <_dtoa_r+0x740>
    2fd8:	00800144 	movi	r2,5
    2fdc:	10c4fc0e 	bge	r2,r3,43d0 <_dtoa_r+0x16d0>
    2fe0:	18ffff04 	addi	r3,r3,-4
    2fe4:	d8c00315 	stw	r3,12(sp)
    2fe8:	0029883a 	mov	r20,zero
    2fec:	d9800317 	ldw	r6,12(sp)
    2ff0:	008000c4 	movi	r2,3
    2ff4:	3083bd26 	beq	r6,r2,3eec <_dtoa_r+0x11ec>
    2ff8:	1183670e 	bge	r2,r6,3d98 <_dtoa_r+0x1098>
    2ffc:	d8c00317 	ldw	r3,12(sp)
    3000:	00800104 	movi	r2,4
    3004:	1882e726 	beq	r3,r2,3ba4 <_dtoa_r+0xea4>
    3008:	00800144 	movi	r2,5
    300c:	1884f21e 	bne	r3,r2,43d8 <_dtoa_r+0x16d8>
    3010:	00800044 	movi	r2,1
    3014:	d8800b15 	stw	r2,44(sp)
    3018:	d8c02217 	ldw	r3,136(sp)
    301c:	d9000517 	ldw	r4,20(sp)
    3020:	1907883a 	add	r3,r3,r4
    3024:	19800044 	addi	r6,r3,1
    3028:	d8c00c15 	stw	r3,48(sp)
    302c:	d9800615 	stw	r6,24(sp)
    3030:	0183c30e 	bge	zero,r6,3f40 <_dtoa_r+0x1240>
    3034:	d9800617 	ldw	r6,24(sp)
    3038:	3023883a 	mov	r17,r6
    303c:	80001115 	stw	zero,68(r16)
    3040:	008005c4 	movi	r2,23
    3044:	1184f62e 	bgeu	r2,r6,4420 <_dtoa_r+0x1720>
    3048:	00c00044 	movi	r3,1
    304c:	00800104 	movi	r2,4
    3050:	1085883a 	add	r2,r2,r2
    3054:	11000504 	addi	r4,r2,20
    3058:	180b883a 	mov	r5,r3
    305c:	18c00044 	addi	r3,r3,1
    3060:	313ffb2e 	bgeu	r6,r4,3050 <__alt_mem_onchip_memory2_0+0xfbfe3050>
    3064:	81401115 	stw	r5,68(r16)
    3068:	8009883a 	mov	r4,r16
    306c:	000613c0 	call	613c <_Balloc>
    3070:	d8800715 	stw	r2,28(sp)
    3074:	80801015 	stw	r2,64(r16)
    3078:	00800384 	movi	r2,14
    307c:	1440fd36 	bltu	r2,r17,3474 <_dtoa_r+0x774>
    3080:	a000fc26 	beq	r20,zero,3474 <_dtoa_r+0x774>
    3084:	d8800517 	ldw	r2,20(sp)
    3088:	0083b90e 	bge	zero,r2,3f70 <_dtoa_r+0x1270>
    308c:	d8c00517 	ldw	r3,20(sp)
    3090:	108003cc 	andi	r2,r2,15
    3094:	100490fa 	slli	r2,r2,3
    3098:	182fd13a 	srai	r23,r3,4
    309c:	00c00074 	movhi	r3,1
    30a0:	18ffd604 	addi	r3,r3,-168
    30a4:	1885883a 	add	r2,r3,r2
    30a8:	b8c0040c 	andi	r3,r23,16
    30ac:	12c00017 	ldw	r11,0(r2)
    30b0:	12800117 	ldw	r10,4(r2)
    30b4:	18039726 	beq	r3,zero,3f14 <_dtoa_r+0x1214>
    30b8:	00800074 	movhi	r2,1
    30bc:	10bfcc04 	addi	r2,r2,-208
    30c0:	11800817 	ldw	r6,32(r2)
    30c4:	11c00917 	ldw	r7,36(r2)
    30c8:	9009883a 	mov	r4,r18
    30cc:	980b883a 	mov	r5,r19
    30d0:	da801615 	stw	r10,88(sp)
    30d4:	dac01515 	stw	r11,84(sp)
    30d8:	000ad2c0 	call	ad2c <__divdf3>
    30dc:	da801617 	ldw	r10,88(sp)
    30e0:	dac01517 	ldw	r11,84(sp)
    30e4:	bdc003cc 	andi	r23,r23,15
    30e8:	044000c4 	movi	r17,3
    30ec:	d8800e15 	stw	r2,56(sp)
    30f0:	182b883a 	mov	r21,r3
    30f4:	b8001126 	beq	r23,zero,313c <_dtoa_r+0x43c>
    30f8:	05000074 	movhi	r20,1
    30fc:	a53fcc04 	addi	r20,r20,-208
    3100:	5805883a 	mov	r2,r11
    3104:	5007883a 	mov	r3,r10
    3108:	b980004c 	andi	r6,r23,1
    310c:	1009883a 	mov	r4,r2
    3110:	b82fd07a 	srai	r23,r23,1
    3114:	180b883a 	mov	r5,r3
    3118:	30000426 	beq	r6,zero,312c <_dtoa_r+0x42c>
    311c:	a1800017 	ldw	r6,0(r20)
    3120:	a1c00117 	ldw	r7,4(r20)
    3124:	8c400044 	addi	r17,r17,1
    3128:	000b83c0 	call	b83c <__muldf3>
    312c:	a5000204 	addi	r20,r20,8
    3130:	b83ff51e 	bne	r23,zero,3108 <__alt_mem_onchip_memory2_0+0xfbfe3108>
    3134:	1017883a 	mov	r11,r2
    3138:	1815883a 	mov	r10,r3
    313c:	d9000e17 	ldw	r4,56(sp)
    3140:	a80b883a 	mov	r5,r21
    3144:	580d883a 	mov	r6,r11
    3148:	500f883a 	mov	r7,r10
    314c:	000ad2c0 	call	ad2c <__divdf3>
    3150:	1029883a 	mov	r20,r2
    3154:	182b883a 	mov	r21,r3
    3158:	d9800d17 	ldw	r6,52(sp)
    315c:	30000626 	beq	r6,zero,3178 <_dtoa_r+0x478>
    3160:	a009883a 	mov	r4,r20
    3164:	a80b883a 	mov	r5,r21
    3168:	000d883a 	mov	r6,zero
    316c:	01cffc34 	movhi	r7,16368
    3170:	000b75c0 	call	b75c <__ledf2>
    3174:	10043216 	blt	r2,zero,4240 <_dtoa_r+0x1540>
    3178:	8809883a 	mov	r4,r17
    317c:	000c8b80 	call	c8b8 <__floatsidf>
    3180:	1009883a 	mov	r4,r2
    3184:	180b883a 	mov	r5,r3
    3188:	a00d883a 	mov	r6,r20
    318c:	a80f883a 	mov	r7,r21
    3190:	000b83c0 	call	b83c <__muldf3>
    3194:	000d883a 	mov	r6,zero
    3198:	1009883a 	mov	r4,r2
    319c:	180b883a 	mov	r5,r3
    31a0:	01d00734 	movhi	r7,16412
    31a4:	000a4900 	call	a490 <__adddf3>
    31a8:	1023883a 	mov	r17,r2
    31ac:	d9800617 	ldw	r6,24(sp)
    31b0:	00bf3034 	movhi	r2,64704
    31b4:	1885883a 	add	r2,r3,r2
    31b8:	d8800e15 	stw	r2,56(sp)
    31bc:	30032e26 	beq	r6,zero,3e78 <_dtoa_r+0x1178>
    31c0:	d8c00517 	ldw	r3,20(sp)
    31c4:	da800617 	ldw	r10,24(sp)
    31c8:	d8c01215 	stw	r3,72(sp)
    31cc:	d9000b17 	ldw	r4,44(sp)
    31d0:	2003b026 	beq	r4,zero,4094 <_dtoa_r+0x1394>
    31d4:	50bfffc4 	addi	r2,r10,-1
    31d8:	100490fa 	slli	r2,r2,3
    31dc:	00c00074 	movhi	r3,1
    31e0:	18ffd604 	addi	r3,r3,-168
    31e4:	1885883a 	add	r2,r3,r2
    31e8:	11800017 	ldw	r6,0(r2)
    31ec:	11c00117 	ldw	r7,4(r2)
    31f0:	d8800717 	ldw	r2,28(sp)
    31f4:	0009883a 	mov	r4,zero
    31f8:	014ff834 	movhi	r5,16352
    31fc:	da801615 	stw	r10,88(sp)
    3200:	15c00044 	addi	r23,r2,1
    3204:	000ad2c0 	call	ad2c <__divdf3>
    3208:	d9c00e17 	ldw	r7,56(sp)
    320c:	880d883a 	mov	r6,r17
    3210:	1009883a 	mov	r4,r2
    3214:	180b883a 	mov	r5,r3
    3218:	000bf600 	call	bf60 <__subdf3>
    321c:	a80b883a 	mov	r5,r21
    3220:	a009883a 	mov	r4,r20
    3224:	d8c01015 	stw	r3,64(sp)
    3228:	d8800e15 	stw	r2,56(sp)
    322c:	000c8300 	call	c830 <__fixdfsi>
    3230:	1009883a 	mov	r4,r2
    3234:	d8801715 	stw	r2,92(sp)
    3238:	000c8b80 	call	c8b8 <__floatsidf>
    323c:	a009883a 	mov	r4,r20
    3240:	a80b883a 	mov	r5,r21
    3244:	100d883a 	mov	r6,r2
    3248:	180f883a 	mov	r7,r3
    324c:	000bf600 	call	bf60 <__subdf3>
    3250:	da001717 	ldw	r8,92(sp)
    3254:	1829883a 	mov	r20,r3
    3258:	d8c00717 	ldw	r3,28(sp)
    325c:	d9000e17 	ldw	r4,56(sp)
    3260:	d9401017 	ldw	r5,64(sp)
    3264:	42000c04 	addi	r8,r8,48
    3268:	1023883a 	mov	r17,r2
    326c:	1a000005 	stb	r8,0(r3)
    3270:	880d883a 	mov	r6,r17
    3274:	a00f883a 	mov	r7,r20
    3278:	402b883a 	mov	r21,r8
    327c:	000b67c0 	call	b67c <__gedf2>
    3280:	00844516 	blt	zero,r2,4398 <_dtoa_r+0x1698>
    3284:	0009883a 	mov	r4,zero
    3288:	014ffc34 	movhi	r5,16368
    328c:	880d883a 	mov	r6,r17
    3290:	a00f883a 	mov	r7,r20
    3294:	000bf600 	call	bf60 <__subdf3>
    3298:	d9000e17 	ldw	r4,56(sp)
    329c:	d9401017 	ldw	r5,64(sp)
    32a0:	100d883a 	mov	r6,r2
    32a4:	180f883a 	mov	r7,r3
    32a8:	000b67c0 	call	b67c <__gedf2>
    32ac:	da801617 	ldw	r10,88(sp)
    32b0:	00843616 	blt	zero,r2,438c <_dtoa_r+0x168c>
    32b4:	00800044 	movi	r2,1
    32b8:	12806e0e 	bge	r2,r10,3474 <_dtoa_r+0x774>
    32bc:	d9000717 	ldw	r4,28(sp)
    32c0:	dd801315 	stw	r22,76(sp)
    32c4:	dc001115 	stw	r16,68(sp)
    32c8:	2295883a 	add	r10,r4,r10
    32cc:	dcc01415 	stw	r19,80(sp)
    32d0:	502d883a 	mov	r22,r10
    32d4:	dcc01017 	ldw	r19,64(sp)
    32d8:	b821883a 	mov	r16,r23
    32dc:	dc801015 	stw	r18,64(sp)
    32e0:	dc800e17 	ldw	r18,56(sp)
    32e4:	00000906 	br	330c <_dtoa_r+0x60c>
    32e8:	000bf600 	call	bf60 <__subdf3>
    32ec:	1009883a 	mov	r4,r2
    32f0:	180b883a 	mov	r5,r3
    32f4:	900d883a 	mov	r6,r18
    32f8:	980f883a 	mov	r7,r19
    32fc:	000b75c0 	call	b75c <__ledf2>
    3300:	10040e16 	blt	r2,zero,433c <_dtoa_r+0x163c>
    3304:	b821883a 	mov	r16,r23
    3308:	bd841026 	beq	r23,r22,434c <_dtoa_r+0x164c>
    330c:	9009883a 	mov	r4,r18
    3310:	980b883a 	mov	r5,r19
    3314:	000d883a 	mov	r6,zero
    3318:	01d00934 	movhi	r7,16420
    331c:	000b83c0 	call	b83c <__muldf3>
    3320:	000d883a 	mov	r6,zero
    3324:	01d00934 	movhi	r7,16420
    3328:	8809883a 	mov	r4,r17
    332c:	a00b883a 	mov	r5,r20
    3330:	1025883a 	mov	r18,r2
    3334:	1827883a 	mov	r19,r3
    3338:	000b83c0 	call	b83c <__muldf3>
    333c:	180b883a 	mov	r5,r3
    3340:	1009883a 	mov	r4,r2
    3344:	1823883a 	mov	r17,r3
    3348:	1029883a 	mov	r20,r2
    334c:	000c8300 	call	c830 <__fixdfsi>
    3350:	1009883a 	mov	r4,r2
    3354:	102b883a 	mov	r21,r2
    3358:	000c8b80 	call	c8b8 <__floatsidf>
    335c:	a009883a 	mov	r4,r20
    3360:	880b883a 	mov	r5,r17
    3364:	100d883a 	mov	r6,r2
    3368:	180f883a 	mov	r7,r3
    336c:	000bf600 	call	bf60 <__subdf3>
    3370:	ad400c04 	addi	r21,r21,48
    3374:	1009883a 	mov	r4,r2
    3378:	180b883a 	mov	r5,r3
    337c:	900d883a 	mov	r6,r18
    3380:	980f883a 	mov	r7,r19
    3384:	85400005 	stb	r21,0(r16)
    3388:	1023883a 	mov	r17,r2
    338c:	1829883a 	mov	r20,r3
    3390:	000b75c0 	call	b75c <__ledf2>
    3394:	bdc00044 	addi	r23,r23,1
    3398:	0009883a 	mov	r4,zero
    339c:	014ffc34 	movhi	r5,16368
    33a0:	880d883a 	mov	r6,r17
    33a4:	a00f883a 	mov	r7,r20
    33a8:	103fcf0e 	bge	r2,zero,32e8 <__alt_mem_onchip_memory2_0+0xfbfe32e8>
    33ac:	d9801217 	ldw	r6,72(sp)
    33b0:	dc001117 	ldw	r16,68(sp)
    33b4:	d9800515 	stw	r6,20(sp)
    33b8:	8009883a 	mov	r4,r16
    33bc:	e00b883a 	mov	r5,fp
    33c0:	00061e40 	call	61e4 <_Bfree>
    33c4:	d8c00517 	ldw	r3,20(sp)
    33c8:	d9002317 	ldw	r4,140(sp)
    33cc:	d9802517 	ldw	r6,148(sp)
    33d0:	b8000005 	stb	zero,0(r23)
    33d4:	18800044 	addi	r2,r3,1
    33d8:	20800015 	stw	r2,0(r4)
    33dc:	30027226 	beq	r6,zero,3da8 <_dtoa_r+0x10a8>
    33e0:	35c00015 	stw	r23,0(r6)
    33e4:	d8800717 	ldw	r2,28(sp)
    33e8:	003e7406 	br	2dbc <__alt_mem_onchip_memory2_0+0xfbfe2dbc>
    33ec:	00800434 	movhi	r2,16
    33f0:	10bfffc4 	addi	r2,r2,-1
    33f4:	a8aa703a 	and	r21,r21,r2
    33f8:	a83e801e 	bne	r21,zero,2dfc <__alt_mem_onchip_memory2_0+0xfbfe2dfc>
    33fc:	00800074 	movhi	r2,1
    3400:	10bfb704 	addi	r2,r2,-292
    3404:	003e7f06 	br	2e04 <__alt_mem_onchip_memory2_0+0xfbfe2e04>
    3408:	10c00204 	addi	r3,r2,8
    340c:	003e8206 	br	2e18 <__alt_mem_onchip_memory2_0+0xfbfe2e18>
    3410:	01400434 	movhi	r5,16
    3414:	297fffc4 	addi	r5,r5,-1
    3418:	994a703a 	and	r5,r19,r5
    341c:	9009883a 	mov	r4,r18
    3420:	8c7f0044 	addi	r17,r17,-1023
    3424:	294ffc34 	orhi	r5,r5,16368
    3428:	dd000217 	ldw	r20,8(sp)
    342c:	d8000f15 	stw	zero,60(sp)
    3430:	003e9f06 	br	2eb0 <__alt_mem_onchip_memory2_0+0xfbfe2eb0>
    3434:	00800074 	movhi	r2,1
    3438:	10bfae04 	addi	r2,r2,-328
    343c:	003e5f06 	br	2dbc <__alt_mem_onchip_memory2_0+0xfbfe2dbc>
    3440:	80001115 	stw	zero,68(r16)
    3444:	8009883a 	mov	r4,r16
    3448:	000b883a 	mov	r5,zero
    344c:	000613c0 	call	613c <_Balloc>
    3450:	01bfffc4 	movi	r6,-1
    3454:	d8800715 	stw	r2,28(sp)
    3458:	80801015 	stw	r2,64(r16)
    345c:	00800044 	movi	r2,1
    3460:	d9800c15 	stw	r6,48(sp)
    3464:	d8800b15 	stw	r2,44(sp)
    3468:	d9800615 	stw	r6,24(sp)
    346c:	d8002215 	stw	zero,136(sp)
    3470:	d8000315 	stw	zero,12(sp)
    3474:	d8800117 	ldw	r2,4(sp)
    3478:	10008e16 	blt	r2,zero,36b4 <_dtoa_r+0x9b4>
    347c:	d9000517 	ldw	r4,20(sp)
    3480:	00c00384 	movi	r3,14
    3484:	19008b16 	blt	r3,r4,36b4 <_dtoa_r+0x9b4>
    3488:	200490fa 	slli	r2,r4,3
    348c:	00c00074 	movhi	r3,1
    3490:	d9802217 	ldw	r6,136(sp)
    3494:	18ffd604 	addi	r3,r3,-168
    3498:	1885883a 	add	r2,r3,r2
    349c:	14400017 	ldw	r17,0(r2)
    34a0:	15000117 	ldw	r20,4(r2)
    34a4:	3001c716 	blt	r6,zero,3bc4 <_dtoa_r+0xec4>
    34a8:	880d883a 	mov	r6,r17
    34ac:	a00f883a 	mov	r7,r20
    34b0:	9009883a 	mov	r4,r18
    34b4:	980b883a 	mov	r5,r19
    34b8:	000ad2c0 	call	ad2c <__divdf3>
    34bc:	180b883a 	mov	r5,r3
    34c0:	1009883a 	mov	r4,r2
    34c4:	000c8300 	call	c830 <__fixdfsi>
    34c8:	1009883a 	mov	r4,r2
    34cc:	102d883a 	mov	r22,r2
    34d0:	000c8b80 	call	c8b8 <__floatsidf>
    34d4:	1009883a 	mov	r4,r2
    34d8:	180b883a 	mov	r5,r3
    34dc:	880d883a 	mov	r6,r17
    34e0:	a00f883a 	mov	r7,r20
    34e4:	000b83c0 	call	b83c <__muldf3>
    34e8:	9009883a 	mov	r4,r18
    34ec:	980b883a 	mov	r5,r19
    34f0:	100d883a 	mov	r6,r2
    34f4:	180f883a 	mov	r7,r3
    34f8:	000bf600 	call	bf60 <__subdf3>
    34fc:	d9000717 	ldw	r4,28(sp)
    3500:	d9800617 	ldw	r6,24(sp)
    3504:	180b883a 	mov	r5,r3
    3508:	b0c00c04 	addi	r3,r22,48
    350c:	20c00005 	stb	r3,0(r4)
    3510:	25c00044 	addi	r23,r4,1
    3514:	01000044 	movi	r4,1
    3518:	1011883a 	mov	r8,r2
    351c:	2807883a 	mov	r3,r5
    3520:	31003d26 	beq	r6,r4,3618 <_dtoa_r+0x918>
    3524:	000d883a 	mov	r6,zero
    3528:	01d00934 	movhi	r7,16420
    352c:	1009883a 	mov	r4,r2
    3530:	000b83c0 	call	b83c <__muldf3>
    3534:	1009883a 	mov	r4,r2
    3538:	180b883a 	mov	r5,r3
    353c:	000d883a 	mov	r6,zero
    3540:	000f883a 	mov	r7,zero
    3544:	1027883a 	mov	r19,r2
    3548:	182b883a 	mov	r21,r3
    354c:	000b5f80 	call	b5f8 <__eqdf2>
    3550:	103f9926 	beq	r2,zero,33b8 <__alt_mem_onchip_memory2_0+0xfbfe33b8>
    3554:	d8c00617 	ldw	r3,24(sp)
    3558:	d9000717 	ldw	r4,28(sp)
    355c:	b825883a 	mov	r18,r23
    3560:	18bfffc4 	addi	r2,r3,-1
    3564:	20ad883a 	add	r22,r4,r2
    3568:	dc000315 	stw	r16,12(sp)
    356c:	00000a06 	br	3598 <_dtoa_r+0x898>
    3570:	000b83c0 	call	b83c <__muldf3>
    3574:	1009883a 	mov	r4,r2
    3578:	180b883a 	mov	r5,r3
    357c:	000d883a 	mov	r6,zero
    3580:	000f883a 	mov	r7,zero
    3584:	1027883a 	mov	r19,r2
    3588:	182b883a 	mov	r21,r3
    358c:	b825883a 	mov	r18,r23
    3590:	000b5f80 	call	b5f8 <__eqdf2>
    3594:	10022626 	beq	r2,zero,3e30 <_dtoa_r+0x1130>
    3598:	880d883a 	mov	r6,r17
    359c:	a00f883a 	mov	r7,r20
    35a0:	9809883a 	mov	r4,r19
    35a4:	a80b883a 	mov	r5,r21
    35a8:	000ad2c0 	call	ad2c <__divdf3>
    35ac:	180b883a 	mov	r5,r3
    35b0:	1009883a 	mov	r4,r2
    35b4:	000c8300 	call	c830 <__fixdfsi>
    35b8:	1009883a 	mov	r4,r2
    35bc:	1021883a 	mov	r16,r2
    35c0:	000c8b80 	call	c8b8 <__floatsidf>
    35c4:	1009883a 	mov	r4,r2
    35c8:	180b883a 	mov	r5,r3
    35cc:	880d883a 	mov	r6,r17
    35d0:	a00f883a 	mov	r7,r20
    35d4:	000b83c0 	call	b83c <__muldf3>
    35d8:	9809883a 	mov	r4,r19
    35dc:	a80b883a 	mov	r5,r21
    35e0:	100d883a 	mov	r6,r2
    35e4:	180f883a 	mov	r7,r3
    35e8:	000bf600 	call	bf60 <__subdf3>
    35ec:	82000c04 	addi	r8,r16,48
    35f0:	92000005 	stb	r8,0(r18)
    35f4:	1009883a 	mov	r4,r2
    35f8:	180b883a 	mov	r5,r3
    35fc:	000d883a 	mov	r6,zero
    3600:	01d00934 	movhi	r7,16420
    3604:	1011883a 	mov	r8,r2
    3608:	bdc00044 	addi	r23,r23,1
    360c:	95bfd81e 	bne	r18,r22,3570 <__alt_mem_onchip_memory2_0+0xfbfe3570>
    3610:	802d883a 	mov	r22,r16
    3614:	dc000317 	ldw	r16,12(sp)
    3618:	4009883a 	mov	r4,r8
    361c:	180b883a 	mov	r5,r3
    3620:	400d883a 	mov	r6,r8
    3624:	180f883a 	mov	r7,r3
    3628:	000a4900 	call	a490 <__adddf3>
    362c:	8809883a 	mov	r4,r17
    3630:	a00b883a 	mov	r5,r20
    3634:	100d883a 	mov	r6,r2
    3638:	180f883a 	mov	r7,r3
    363c:	1027883a 	mov	r19,r2
    3640:	1825883a 	mov	r18,r3
    3644:	000b75c0 	call	b75c <__ledf2>
    3648:	10000816 	blt	r2,zero,366c <_dtoa_r+0x96c>
    364c:	8809883a 	mov	r4,r17
    3650:	a00b883a 	mov	r5,r20
    3654:	980d883a 	mov	r6,r19
    3658:	900f883a 	mov	r7,r18
    365c:	000b5f80 	call	b5f8 <__eqdf2>
    3660:	103f551e 	bne	r2,zero,33b8 <__alt_mem_onchip_memory2_0+0xfbfe33b8>
    3664:	b580004c 	andi	r22,r22,1
    3668:	b03f5326 	beq	r22,zero,33b8 <__alt_mem_onchip_memory2_0+0xfbfe33b8>
    366c:	bd7fffc3 	ldbu	r21,-1(r23)
    3670:	b8bfffc4 	addi	r2,r23,-1
    3674:	1007883a 	mov	r3,r2
    3678:	01400e44 	movi	r5,57
    367c:	d9800717 	ldw	r6,28(sp)
    3680:	00000506 	br	3698 <_dtoa_r+0x998>
    3684:	18ffffc4 	addi	r3,r3,-1
    3688:	30825e26 	beq	r6,r2,4004 <_dtoa_r+0x1304>
    368c:	1d400003 	ldbu	r21,0(r3)
    3690:	102f883a 	mov	r23,r2
    3694:	10bfffc4 	addi	r2,r2,-1
    3698:	a9003fcc 	andi	r4,r21,255
    369c:	2100201c 	xori	r4,r4,128
    36a0:	213fe004 	addi	r4,r4,-128
    36a4:	217ff726 	beq	r4,r5,3684 <__alt_mem_onchip_memory2_0+0xfbfe3684>
    36a8:	aa000044 	addi	r8,r21,1
    36ac:	12000005 	stb	r8,0(r2)
    36b0:	003f4106 	br	33b8 <__alt_mem_onchip_memory2_0+0xfbfe33b8>
    36b4:	d8c00b17 	ldw	r3,44(sp)
    36b8:	18006726 	beq	r3,zero,3858 <_dtoa_r+0xb58>
    36bc:	d9000317 	ldw	r4,12(sp)
    36c0:	00c00044 	movi	r3,1
    36c4:	19016a0e 	bge	r3,r4,3c70 <_dtoa_r+0xf70>
    36c8:	d8800617 	ldw	r2,24(sp)
    36cc:	d8c00917 	ldw	r3,36(sp)
    36d0:	157fffc4 	addi	r21,r2,-1
    36d4:	1d420716 	blt	r3,r21,3ef4 <_dtoa_r+0x11f4>
    36d8:	1d6bc83a 	sub	r21,r3,r21
    36dc:	d8800617 	ldw	r2,24(sp)
    36e0:	1002c716 	blt	r2,zero,4200 <_dtoa_r+0x1500>
    36e4:	dd000817 	ldw	r20,32(sp)
    36e8:	d8800617 	ldw	r2,24(sp)
    36ec:	d9800817 	ldw	r6,32(sp)
    36f0:	8009883a 	mov	r4,r16
    36f4:	01400044 	movi	r5,1
    36f8:	308d883a 	add	r6,r6,r2
    36fc:	d9800815 	stw	r6,32(sp)
    3700:	b0ad883a 	add	r22,r22,r2
    3704:	00065480 	call	6548 <__i2b>
    3708:	1023883a 	mov	r17,r2
    370c:	a0000826 	beq	r20,zero,3730 <_dtoa_r+0xa30>
    3710:	0580070e 	bge	zero,r22,3730 <_dtoa_r+0xa30>
    3714:	b005883a 	mov	r2,r22
    3718:	a5812016 	blt	r20,r22,3b9c <_dtoa_r+0xe9c>
    371c:	d8c00817 	ldw	r3,32(sp)
    3720:	a0a9c83a 	sub	r20,r20,r2
    3724:	b0adc83a 	sub	r22,r22,r2
    3728:	1887c83a 	sub	r3,r3,r2
    372c:	d8c00815 	stw	r3,32(sp)
    3730:	d9000917 	ldw	r4,36(sp)
    3734:	0100140e 	bge	zero,r4,3788 <_dtoa_r+0xa88>
    3738:	d9800b17 	ldw	r6,44(sp)
    373c:	3001e526 	beq	r6,zero,3ed4 <_dtoa_r+0x11d4>
    3740:	05400e0e 	bge	zero,r21,377c <_dtoa_r+0xa7c>
    3744:	880b883a 	mov	r5,r17
    3748:	8009883a 	mov	r4,r16
    374c:	a80d883a 	mov	r6,r21
    3750:	00067800 	call	6780 <__pow5mult>
    3754:	e00d883a 	mov	r6,fp
    3758:	8009883a 	mov	r4,r16
    375c:	100b883a 	mov	r5,r2
    3760:	1023883a 	mov	r17,r2
    3764:	00065840 	call	6584 <__multiply>
    3768:	102f883a 	mov	r23,r2
    376c:	e00b883a 	mov	r5,fp
    3770:	8009883a 	mov	r4,r16
    3774:	00061e40 	call	61e4 <_Bfree>
    3778:	b839883a 	mov	fp,r23
    377c:	d8800917 	ldw	r2,36(sp)
    3780:	154dc83a 	sub	r6,r2,r21
    3784:	3001281e 	bne	r6,zero,3c28 <_dtoa_r+0xf28>
    3788:	05c00044 	movi	r23,1
    378c:	8009883a 	mov	r4,r16
    3790:	b80b883a 	mov	r5,r23
    3794:	00065480 	call	6548 <__i2b>
    3798:	d8c00a17 	ldw	r3,40(sp)
    379c:	102b883a 	mov	r21,r2
    37a0:	00c0310e 	bge	zero,r3,3868 <_dtoa_r+0xb68>
    37a4:	8009883a 	mov	r4,r16
    37a8:	100b883a 	mov	r5,r2
    37ac:	180d883a 	mov	r6,r3
    37b0:	00067800 	call	6780 <__pow5mult>
    37b4:	d9000317 	ldw	r4,12(sp)
    37b8:	102b883a 	mov	r21,r2
    37bc:	b9011f0e 	bge	r23,r4,3c3c <_dtoa_r+0xf3c>
    37c0:	0027883a 	mov	r19,zero
    37c4:	a8800417 	ldw	r2,16(r21)
    37c8:	10800104 	addi	r2,r2,4
    37cc:	1085883a 	add	r2,r2,r2
    37d0:	1085883a 	add	r2,r2,r2
    37d4:	a885883a 	add	r2,r21,r2
    37d8:	11000017 	ldw	r4,0(r2)
    37dc:	00064300 	call	6430 <__hi0bits>
    37e0:	00c00804 	movi	r3,32
    37e4:	1885c83a 	sub	r2,r3,r2
    37e8:	00002506 	br	3880 <_dtoa_r+0xb80>
    37ec:	01800044 	movi	r6,1
    37f0:	d9800d15 	stw	r6,52(sp)
    37f4:	003dec06 	br	2fa8 <__alt_mem_onchip_memory2_0+0xfbfe2fa8>
    37f8:	d8c00817 	ldw	r3,32(sp)
    37fc:	d9000517 	ldw	r4,20(sp)
    3800:	d8000a15 	stw	zero,40(sp)
    3804:	1907c83a 	sub	r3,r3,r4
    3808:	010dc83a 	sub	r6,zero,r4
    380c:	d8c00815 	stw	r3,32(sp)
    3810:	d9800915 	stw	r6,36(sp)
    3814:	003ded06 	br	2fcc <__alt_mem_onchip_memory2_0+0xfbfe2fcc>
    3818:	05adc83a 	sub	r22,zero,r22
    381c:	dd800815 	stw	r22,32(sp)
    3820:	002d883a 	mov	r22,zero
    3824:	003de406 	br	2fb8 <__alt_mem_onchip_memory2_0+0xfbfe2fb8>
    3828:	d9000517 	ldw	r4,20(sp)
    382c:	000c8b80 	call	c8b8 <__floatsidf>
    3830:	1009883a 	mov	r4,r2
    3834:	180b883a 	mov	r5,r3
    3838:	b00d883a 	mov	r6,r22
    383c:	a80f883a 	mov	r7,r21
    3840:	000b5f80 	call	b5f8 <__eqdf2>
    3844:	103dc726 	beq	r2,zero,2f64 <__alt_mem_onchip_memory2_0+0xfbfe2f64>
    3848:	d8800517 	ldw	r2,20(sp)
    384c:	10bfffc4 	addi	r2,r2,-1
    3850:	d8800515 	stw	r2,20(sp)
    3854:	003dc306 	br	2f64 <__alt_mem_onchip_memory2_0+0xfbfe2f64>
    3858:	dd400917 	ldw	r21,36(sp)
    385c:	dd000817 	ldw	r20,32(sp)
    3860:	0023883a 	mov	r17,zero
    3864:	003fa906 	br	370c <__alt_mem_onchip_memory2_0+0xfbfe370c>
    3868:	d9800317 	ldw	r6,12(sp)
    386c:	b981670e 	bge	r23,r6,3e0c <_dtoa_r+0x110c>
    3870:	0027883a 	mov	r19,zero
    3874:	d8c00a17 	ldw	r3,40(sp)
    3878:	183fd21e 	bne	r3,zero,37c4 <__alt_mem_onchip_memory2_0+0xfbfe37c4>
    387c:	00800044 	movi	r2,1
    3880:	1585883a 	add	r2,r2,r22
    3884:	108007cc 	andi	r2,r2,31
    3888:	10005f26 	beq	r2,zero,3a08 <_dtoa_r+0xd08>
    388c:	00c00804 	movi	r3,32
    3890:	1887c83a 	sub	r3,r3,r2
    3894:	01000104 	movi	r4,4
    3898:	20c2dd0e 	bge	r4,r3,4410 <_dtoa_r+0x1710>
    389c:	d9000817 	ldw	r4,32(sp)
    38a0:	00c00704 	movi	r3,28
    38a4:	1885c83a 	sub	r2,r3,r2
    38a8:	2089883a 	add	r4,r4,r2
    38ac:	d9000815 	stw	r4,32(sp)
    38b0:	a0a9883a 	add	r20,r20,r2
    38b4:	b0ad883a 	add	r22,r22,r2
    38b8:	d8800817 	ldw	r2,32(sp)
    38bc:	0080050e 	bge	zero,r2,38d4 <_dtoa_r+0xbd4>
    38c0:	e00b883a 	mov	r5,fp
    38c4:	8009883a 	mov	r4,r16
    38c8:	100d883a 	mov	r6,r2
    38cc:	00068c00 	call	68c0 <__lshift>
    38d0:	1039883a 	mov	fp,r2
    38d4:	0580050e 	bge	zero,r22,38ec <_dtoa_r+0xbec>
    38d8:	a80b883a 	mov	r5,r21
    38dc:	8009883a 	mov	r4,r16
    38e0:	b00d883a 	mov	r6,r22
    38e4:	00068c00 	call	68c0 <__lshift>
    38e8:	102b883a 	mov	r21,r2
    38ec:	d8c00d17 	ldw	r3,52(sp)
    38f0:	1801161e 	bne	r3,zero,3d4c <_dtoa_r+0x104c>
    38f4:	d8c00617 	ldw	r3,24(sp)
    38f8:	00c12d0e 	bge	zero,r3,3db0 <_dtoa_r+0x10b0>
    38fc:	d8c00b17 	ldw	r3,44(sp)
    3900:	1800571e 	bne	r3,zero,3a60 <_dtoa_r+0xd60>
    3904:	dc800717 	ldw	r18,28(sp)
    3908:	dcc00617 	ldw	r19,24(sp)
    390c:	9029883a 	mov	r20,r18
    3910:	00000206 	br	391c <_dtoa_r+0xc1c>
    3914:	000620c0 	call	620c <__multadd>
    3918:	1039883a 	mov	fp,r2
    391c:	e009883a 	mov	r4,fp
    3920:	a80b883a 	mov	r5,r21
    3924:	0002b000 	call	2b00 <quorem>
    3928:	10800c04 	addi	r2,r2,48
    392c:	90800005 	stb	r2,0(r18)
    3930:	94800044 	addi	r18,r18,1
    3934:	9507c83a 	sub	r3,r18,r20
    3938:	8009883a 	mov	r4,r16
    393c:	e00b883a 	mov	r5,fp
    3940:	01800284 	movi	r6,10
    3944:	000f883a 	mov	r7,zero
    3948:	1cfff216 	blt	r3,r19,3914 <__alt_mem_onchip_memory2_0+0xfbfe3914>
    394c:	1011883a 	mov	r8,r2
    3950:	d8800617 	ldw	r2,24(sp)
    3954:	00822e0e 	bge	zero,r2,4210 <_dtoa_r+0x1510>
    3958:	d9000717 	ldw	r4,28(sp)
    395c:	0025883a 	mov	r18,zero
    3960:	20af883a 	add	r23,r4,r2
    3964:	e00b883a 	mov	r5,fp
    3968:	01800044 	movi	r6,1
    396c:	8009883a 	mov	r4,r16
    3970:	da001715 	stw	r8,92(sp)
    3974:	00068c00 	call	68c0 <__lshift>
    3978:	1009883a 	mov	r4,r2
    397c:	a80b883a 	mov	r5,r21
    3980:	1039883a 	mov	fp,r2
    3984:	0006a100 	call	6a10 <__mcmp>
    3988:	da001717 	ldw	r8,92(sp)
    398c:	00816e0e 	bge	zero,r2,3f48 <_dtoa_r+0x1248>
    3990:	b93fffc3 	ldbu	r4,-1(r23)
    3994:	b8bfffc4 	addi	r2,r23,-1
    3998:	1007883a 	mov	r3,r2
    399c:	01800e44 	movi	r6,57
    39a0:	d9c00717 	ldw	r7,28(sp)
    39a4:	00000506 	br	39bc <_dtoa_r+0xcbc>
    39a8:	18ffffc4 	addi	r3,r3,-1
    39ac:	38811926 	beq	r7,r2,3e14 <_dtoa_r+0x1114>
    39b0:	19000003 	ldbu	r4,0(r3)
    39b4:	102f883a 	mov	r23,r2
    39b8:	10bfffc4 	addi	r2,r2,-1
    39bc:	21403fcc 	andi	r5,r4,255
    39c0:	2940201c 	xori	r5,r5,128
    39c4:	297fe004 	addi	r5,r5,-128
    39c8:	29bff726 	beq	r5,r6,39a8 <__alt_mem_onchip_memory2_0+0xfbfe39a8>
    39cc:	21000044 	addi	r4,r4,1
    39d0:	11000005 	stb	r4,0(r2)
    39d4:	8009883a 	mov	r4,r16
    39d8:	a80b883a 	mov	r5,r21
    39dc:	00061e40 	call	61e4 <_Bfree>
    39e0:	883e7526 	beq	r17,zero,33b8 <__alt_mem_onchip_memory2_0+0xfbfe33b8>
    39e4:	90000426 	beq	r18,zero,39f8 <_dtoa_r+0xcf8>
    39e8:	94400326 	beq	r18,r17,39f8 <_dtoa_r+0xcf8>
    39ec:	8009883a 	mov	r4,r16
    39f0:	900b883a 	mov	r5,r18
    39f4:	00061e40 	call	61e4 <_Bfree>
    39f8:	8009883a 	mov	r4,r16
    39fc:	880b883a 	mov	r5,r17
    3a00:	00061e40 	call	61e4 <_Bfree>
    3a04:	003e6c06 	br	33b8 <__alt_mem_onchip_memory2_0+0xfbfe33b8>
    3a08:	00800704 	movi	r2,28
    3a0c:	d9800817 	ldw	r6,32(sp)
    3a10:	a0a9883a 	add	r20,r20,r2
    3a14:	b0ad883a 	add	r22,r22,r2
    3a18:	308d883a 	add	r6,r6,r2
    3a1c:	d9800815 	stw	r6,32(sp)
    3a20:	003fa506 	br	38b8 <__alt_mem_onchip_memory2_0+0xfbfe38b8>
    3a24:	013efb84 	movi	r4,-1042
    3a28:	246bc83a 	sub	r21,r4,r17
    3a2c:	9548983a 	sll	r4,r18,r21
    3a30:	003d1806 	br	2e94 <__alt_mem_onchip_memory2_0+0xfbfe2e94>
    3a34:	d8000d15 	stw	zero,52(sp)
    3a38:	003d5b06 	br	2fa8 <__alt_mem_onchip_memory2_0+0xfbfe2fa8>
    3a3c:	880b883a 	mov	r5,r17
    3a40:	8009883a 	mov	r4,r16
    3a44:	01800284 	movi	r6,10
    3a48:	000f883a 	mov	r7,zero
    3a4c:	000620c0 	call	620c <__multadd>
    3a50:	1023883a 	mov	r17,r2
    3a54:	d8800c17 	ldw	r2,48(sp)
    3a58:	0082550e 	bge	zero,r2,43b0 <_dtoa_r+0x16b0>
    3a5c:	d8800615 	stw	r2,24(sp)
    3a60:	0500050e 	bge	zero,r20,3a78 <_dtoa_r+0xd78>
    3a64:	880b883a 	mov	r5,r17
    3a68:	8009883a 	mov	r4,r16
    3a6c:	a00d883a 	mov	r6,r20
    3a70:	00068c00 	call	68c0 <__lshift>
    3a74:	1023883a 	mov	r17,r2
    3a78:	98016a1e 	bne	r19,zero,4024 <_dtoa_r+0x1324>
    3a7c:	8829883a 	mov	r20,r17
    3a80:	d9000617 	ldw	r4,24(sp)
    3a84:	dcc00717 	ldw	r19,28(sp)
    3a88:	9480004c 	andi	r18,r18,1
    3a8c:	20bfffc4 	addi	r2,r4,-1
    3a90:	9885883a 	add	r2,r19,r2
    3a94:	d8800415 	stw	r2,16(sp)
    3a98:	dc800615 	stw	r18,24(sp)
    3a9c:	e009883a 	mov	r4,fp
    3aa0:	a80b883a 	mov	r5,r21
    3aa4:	0002b000 	call	2b00 <quorem>
    3aa8:	e009883a 	mov	r4,fp
    3aac:	880b883a 	mov	r5,r17
    3ab0:	102f883a 	mov	r23,r2
    3ab4:	0006a100 	call	6a10 <__mcmp>
    3ab8:	8009883a 	mov	r4,r16
    3abc:	a80b883a 	mov	r5,r21
    3ac0:	a00d883a 	mov	r6,r20
    3ac4:	102d883a 	mov	r22,r2
    3ac8:	0006a700 	call	6a70 <__mdiff>
    3acc:	1007883a 	mov	r3,r2
    3ad0:	10800317 	ldw	r2,12(r2)
    3ad4:	bc800c04 	addi	r18,r23,48
    3ad8:	1000971e 	bne	r2,zero,3d38 <_dtoa_r+0x1038>
    3adc:	180b883a 	mov	r5,r3
    3ae0:	e009883a 	mov	r4,fp
    3ae4:	d8c01515 	stw	r3,84(sp)
    3ae8:	0006a100 	call	6a10 <__mcmp>
    3aec:	d8c01517 	ldw	r3,84(sp)
    3af0:	8009883a 	mov	r4,r16
    3af4:	d8801515 	stw	r2,84(sp)
    3af8:	180b883a 	mov	r5,r3
    3afc:	00061e40 	call	61e4 <_Bfree>
    3b00:	d8801517 	ldw	r2,84(sp)
    3b04:	1000041e 	bne	r2,zero,3b18 <_dtoa_r+0xe18>
    3b08:	d9800317 	ldw	r6,12(sp)
    3b0c:	3000021e 	bne	r6,zero,3b18 <_dtoa_r+0xe18>
    3b10:	d8c00617 	ldw	r3,24(sp)
    3b14:	18007626 	beq	r3,zero,3cf0 <_dtoa_r+0xff0>
    3b18:	b0005b16 	blt	r22,zero,3c88 <_dtoa_r+0xf88>
    3b1c:	b000041e 	bne	r22,zero,3b30 <_dtoa_r+0xe30>
    3b20:	d9000317 	ldw	r4,12(sp)
    3b24:	2000021e 	bne	r4,zero,3b30 <_dtoa_r+0xe30>
    3b28:	d8c00617 	ldw	r3,24(sp)
    3b2c:	18005626 	beq	r3,zero,3c88 <_dtoa_r+0xf88>
    3b30:	00814d16 	blt	zero,r2,4068 <_dtoa_r+0x1368>
    3b34:	d8c00417 	ldw	r3,16(sp)
    3b38:	9d800044 	addi	r22,r19,1
    3b3c:	9c800005 	stb	r18,0(r19)
    3b40:	b02f883a 	mov	r23,r22
    3b44:	98c14c26 	beq	r19,r3,4078 <_dtoa_r+0x1378>
    3b48:	e00b883a 	mov	r5,fp
    3b4c:	8009883a 	mov	r4,r16
    3b50:	01800284 	movi	r6,10
    3b54:	000f883a 	mov	r7,zero
    3b58:	000620c0 	call	620c <__multadd>
    3b5c:	1039883a 	mov	fp,r2
    3b60:	8d006d26 	beq	r17,r20,3d18 <_dtoa_r+0x1018>
    3b64:	880b883a 	mov	r5,r17
    3b68:	01800284 	movi	r6,10
    3b6c:	000f883a 	mov	r7,zero
    3b70:	8009883a 	mov	r4,r16
    3b74:	000620c0 	call	620c <__multadd>
    3b78:	a00b883a 	mov	r5,r20
    3b7c:	8009883a 	mov	r4,r16
    3b80:	01800284 	movi	r6,10
    3b84:	000f883a 	mov	r7,zero
    3b88:	1023883a 	mov	r17,r2
    3b8c:	000620c0 	call	620c <__multadd>
    3b90:	1029883a 	mov	r20,r2
    3b94:	b027883a 	mov	r19,r22
    3b98:	003fc006 	br	3a9c <__alt_mem_onchip_memory2_0+0xfbfe3a9c>
    3b9c:	a005883a 	mov	r2,r20
    3ba0:	003ede06 	br	371c <__alt_mem_onchip_memory2_0+0xfbfe371c>
    3ba4:	01000044 	movi	r4,1
    3ba8:	d9000b15 	stw	r4,44(sp)
    3bac:	d9802217 	ldw	r6,136(sp)
    3bb0:	0180dc0e 	bge	zero,r6,3f24 <_dtoa_r+0x1224>
    3bb4:	3023883a 	mov	r17,r6
    3bb8:	d9800c15 	stw	r6,48(sp)
    3bbc:	d9800615 	stw	r6,24(sp)
    3bc0:	003d1e06 	br	303c <__alt_mem_onchip_memory2_0+0xfbfe303c>
    3bc4:	d8800617 	ldw	r2,24(sp)
    3bc8:	00be3716 	blt	zero,r2,34a8 <__alt_mem_onchip_memory2_0+0xfbfe34a8>
    3bcc:	1000be1e 	bne	r2,zero,3ec8 <_dtoa_r+0x11c8>
    3bd0:	8809883a 	mov	r4,r17
    3bd4:	a00b883a 	mov	r5,r20
    3bd8:	000d883a 	mov	r6,zero
    3bdc:	01d00534 	movhi	r7,16404
    3be0:	000b83c0 	call	b83c <__muldf3>
    3be4:	1009883a 	mov	r4,r2
    3be8:	180b883a 	mov	r5,r3
    3bec:	900d883a 	mov	r6,r18
    3bf0:	980f883a 	mov	r7,r19
    3bf4:	000b67c0 	call	b67c <__gedf2>
    3bf8:	002b883a 	mov	r21,zero
    3bfc:	0023883a 	mov	r17,zero
    3c00:	10007a16 	blt	r2,zero,3dec <_dtoa_r+0x10ec>
    3c04:	d9002217 	ldw	r4,136(sp)
    3c08:	ddc00717 	ldw	r23,28(sp)
    3c0c:	0108303a 	nor	r4,zero,r4
    3c10:	d9000515 	stw	r4,20(sp)
    3c14:	8009883a 	mov	r4,r16
    3c18:	a80b883a 	mov	r5,r21
    3c1c:	00061e40 	call	61e4 <_Bfree>
    3c20:	883f751e 	bne	r17,zero,39f8 <__alt_mem_onchip_memory2_0+0xfbfe39f8>
    3c24:	003de406 	br	33b8 <__alt_mem_onchip_memory2_0+0xfbfe33b8>
    3c28:	e00b883a 	mov	r5,fp
    3c2c:	8009883a 	mov	r4,r16
    3c30:	00067800 	call	6780 <__pow5mult>
    3c34:	1039883a 	mov	fp,r2
    3c38:	003ed306 	br	3788 <__alt_mem_onchip_memory2_0+0xfbfe3788>
    3c3c:	903ee01e 	bne	r18,zero,37c0 <__alt_mem_onchip_memory2_0+0xfbfe37c0>
    3c40:	00800434 	movhi	r2,16
    3c44:	10bfffc4 	addi	r2,r2,-1
    3c48:	9884703a 	and	r2,r19,r2
    3c4c:	103f081e 	bne	r2,zero,3870 <__alt_mem_onchip_memory2_0+0xfbfe3870>
    3c50:	9cdffc2c 	andhi	r19,r19,32752
    3c54:	983f0626 	beq	r19,zero,3870 <__alt_mem_onchip_memory2_0+0xfbfe3870>
    3c58:	d8800817 	ldw	r2,32(sp)
    3c5c:	b5800044 	addi	r22,r22,1
    3c60:	04c00044 	movi	r19,1
    3c64:	10800044 	addi	r2,r2,1
    3c68:	d8800815 	stw	r2,32(sp)
    3c6c:	003f0106 	br	3874 <__alt_mem_onchip_memory2_0+0xfbfe3874>
    3c70:	d9800f17 	ldw	r6,60(sp)
    3c74:	30016826 	beq	r6,zero,4218 <_dtoa_r+0x1518>
    3c78:	10810cc4 	addi	r2,r2,1075
    3c7c:	dd400917 	ldw	r21,36(sp)
    3c80:	dd000817 	ldw	r20,32(sp)
    3c84:	003e9906 	br	36ec <__alt_mem_onchip_memory2_0+0xfbfe36ec>
    3c88:	9011883a 	mov	r8,r18
    3c8c:	4007883a 	mov	r3,r8
    3c90:	e02d883a 	mov	r22,fp
    3c94:	0080100e 	bge	zero,r2,3cd8 <_dtoa_r+0xfd8>
    3c98:	01800044 	movi	r6,1
    3c9c:	8009883a 	mov	r4,r16
    3ca0:	e00b883a 	mov	r5,fp
    3ca4:	da001515 	stw	r8,84(sp)
    3ca8:	da001715 	stw	r8,92(sp)
    3cac:	00068c00 	call	68c0 <__lshift>
    3cb0:	1009883a 	mov	r4,r2
    3cb4:	a80b883a 	mov	r5,r21
    3cb8:	102d883a 	mov	r22,r2
    3cbc:	0006a100 	call	6a10 <__mcmp>
    3cc0:	d8c01517 	ldw	r3,84(sp)
    3cc4:	da001717 	ldw	r8,92(sp)
    3cc8:	0081a50e 	bge	zero,r2,4360 <_dtoa_r+0x1660>
    3ccc:	00800e44 	movi	r2,57
    3cd0:	40817b26 	beq	r8,r2,42c0 <_dtoa_r+0x15c0>
    3cd4:	40c00044 	addi	r3,r8,1
    3cd8:	8825883a 	mov	r18,r17
    3cdc:	9dc00044 	addi	r23,r19,1
    3ce0:	98c00005 	stb	r3,0(r19)
    3ce4:	a023883a 	mov	r17,r20
    3ce8:	b039883a 	mov	fp,r22
    3cec:	003f3906 	br	39d4 <__alt_mem_onchip_memory2_0+0xfbfe39d4>
    3cf0:	00800e44 	movi	r2,57
    3cf4:	9011883a 	mov	r8,r18
    3cf8:	90817226 	beq	r18,r2,42c4 <_dtoa_r+0x15c4>
    3cfc:	0580010e 	bge	zero,r22,3d04 <_dtoa_r+0x1004>
    3d00:	ba000c44 	addi	r8,r23,49
    3d04:	8825883a 	mov	r18,r17
    3d08:	9dc00044 	addi	r23,r19,1
    3d0c:	9a000005 	stb	r8,0(r19)
    3d10:	a023883a 	mov	r17,r20
    3d14:	003f2f06 	br	39d4 <__alt_mem_onchip_memory2_0+0xfbfe39d4>
    3d18:	880b883a 	mov	r5,r17
    3d1c:	8009883a 	mov	r4,r16
    3d20:	01800284 	movi	r6,10
    3d24:	000f883a 	mov	r7,zero
    3d28:	000620c0 	call	620c <__multadd>
    3d2c:	1023883a 	mov	r17,r2
    3d30:	1029883a 	mov	r20,r2
    3d34:	003f9706 	br	3b94 <__alt_mem_onchip_memory2_0+0xfbfe3b94>
    3d38:	8009883a 	mov	r4,r16
    3d3c:	180b883a 	mov	r5,r3
    3d40:	00061e40 	call	61e4 <_Bfree>
    3d44:	00800044 	movi	r2,1
    3d48:	003f7306 	br	3b18 <__alt_mem_onchip_memory2_0+0xfbfe3b18>
    3d4c:	e009883a 	mov	r4,fp
    3d50:	a80b883a 	mov	r5,r21
    3d54:	0006a100 	call	6a10 <__mcmp>
    3d58:	103ee60e 	bge	r2,zero,38f4 <__alt_mem_onchip_memory2_0+0xfbfe38f4>
    3d5c:	8009883a 	mov	r4,r16
    3d60:	e00b883a 	mov	r5,fp
    3d64:	01800284 	movi	r6,10
    3d68:	000f883a 	mov	r7,zero
    3d6c:	000620c0 	call	620c <__multadd>
    3d70:	d9000517 	ldw	r4,20(sp)
    3d74:	d9800b17 	ldw	r6,44(sp)
    3d78:	1039883a 	mov	fp,r2
    3d7c:	213fffc4 	addi	r4,r4,-1
    3d80:	d9000515 	stw	r4,20(sp)
    3d84:	303f2d1e 	bne	r6,zero,3a3c <__alt_mem_onchip_memory2_0+0xfbfe3a3c>
    3d88:	d9000c17 	ldw	r4,48(sp)
    3d8c:	0101780e 	bge	zero,r4,4370 <_dtoa_r+0x1670>
    3d90:	d9000615 	stw	r4,24(sp)
    3d94:	003edb06 	br	3904 <__alt_mem_onchip_memory2_0+0xfbfe3904>
    3d98:	00800084 	movi	r2,2
    3d9c:	30818e1e 	bne	r6,r2,43d8 <_dtoa_r+0x16d8>
    3da0:	d8000b15 	stw	zero,44(sp)
    3da4:	003f8106 	br	3bac <__alt_mem_onchip_memory2_0+0xfbfe3bac>
    3da8:	d8800717 	ldw	r2,28(sp)
    3dac:	003c0306 	br	2dbc <__alt_mem_onchip_memory2_0+0xfbfe2dbc>
    3db0:	d9000317 	ldw	r4,12(sp)
    3db4:	00800084 	movi	r2,2
    3db8:	113ed00e 	bge	r2,r4,38fc <__alt_mem_onchip_memory2_0+0xfbfe38fc>
    3dbc:	d8c00617 	ldw	r3,24(sp)
    3dc0:	183f901e 	bne	r3,zero,3c04 <__alt_mem_onchip_memory2_0+0xfbfe3c04>
    3dc4:	a80b883a 	mov	r5,r21
    3dc8:	8009883a 	mov	r4,r16
    3dcc:	01800144 	movi	r6,5
    3dd0:	000f883a 	mov	r7,zero
    3dd4:	000620c0 	call	620c <__multadd>
    3dd8:	e009883a 	mov	r4,fp
    3ddc:	100b883a 	mov	r5,r2
    3de0:	102b883a 	mov	r21,r2
    3de4:	0006a100 	call	6a10 <__mcmp>
    3de8:	00bf860e 	bge	zero,r2,3c04 <__alt_mem_onchip_memory2_0+0xfbfe3c04>
    3dec:	d9800717 	ldw	r6,28(sp)
    3df0:	00800c44 	movi	r2,49
    3df4:	30800005 	stb	r2,0(r6)
    3df8:	d8800517 	ldw	r2,20(sp)
    3dfc:	35c00044 	addi	r23,r6,1
    3e00:	10800044 	addi	r2,r2,1
    3e04:	d8800515 	stw	r2,20(sp)
    3e08:	003f8206 	br	3c14 <__alt_mem_onchip_memory2_0+0xfbfe3c14>
    3e0c:	903e981e 	bne	r18,zero,3870 <__alt_mem_onchip_memory2_0+0xfbfe3870>
    3e10:	003f8b06 	br	3c40 <__alt_mem_onchip_memory2_0+0xfbfe3c40>
    3e14:	d9800517 	ldw	r6,20(sp)
    3e18:	d8c00717 	ldw	r3,28(sp)
    3e1c:	00800c44 	movi	r2,49
    3e20:	31800044 	addi	r6,r6,1
    3e24:	d9800515 	stw	r6,20(sp)
    3e28:	18800005 	stb	r2,0(r3)
    3e2c:	003ee906 	br	39d4 <__alt_mem_onchip_memory2_0+0xfbfe39d4>
    3e30:	dc000317 	ldw	r16,12(sp)
    3e34:	003d6006 	br	33b8 <__alt_mem_onchip_memory2_0+0xfbfe33b8>
    3e38:	8809883a 	mov	r4,r17
    3e3c:	000c8b80 	call	c8b8 <__floatsidf>
    3e40:	a009883a 	mov	r4,r20
    3e44:	a80b883a 	mov	r5,r21
    3e48:	100d883a 	mov	r6,r2
    3e4c:	180f883a 	mov	r7,r3
    3e50:	000b83c0 	call	b83c <__muldf3>
    3e54:	1009883a 	mov	r4,r2
    3e58:	180b883a 	mov	r5,r3
    3e5c:	000d883a 	mov	r6,zero
    3e60:	01d00734 	movhi	r7,16412
    3e64:	000a4900 	call	a490 <__adddf3>
    3e68:	1023883a 	mov	r17,r2
    3e6c:	00bf3034 	movhi	r2,64704
    3e70:	1885883a 	add	r2,r3,r2
    3e74:	d8800e15 	stw	r2,56(sp)
    3e78:	a009883a 	mov	r4,r20
    3e7c:	a80b883a 	mov	r5,r21
    3e80:	000d883a 	mov	r6,zero
    3e84:	01d00534 	movhi	r7,16404
    3e88:	000bf600 	call	bf60 <__subdf3>
    3e8c:	d9c00e17 	ldw	r7,56(sp)
    3e90:	1009883a 	mov	r4,r2
    3e94:	180b883a 	mov	r5,r3
    3e98:	880d883a 	mov	r6,r17
    3e9c:	102b883a 	mov	r21,r2
    3ea0:	1829883a 	mov	r20,r3
    3ea4:	000b67c0 	call	b67c <__gedf2>
    3ea8:	00807716 	blt	zero,r2,4088 <_dtoa_r+0x1388>
    3eac:	d8800e17 	ldw	r2,56(sp)
    3eb0:	a809883a 	mov	r4,r21
    3eb4:	a00b883a 	mov	r5,r20
    3eb8:	11e0003c 	xorhi	r7,r2,32768
    3ebc:	880d883a 	mov	r6,r17
    3ec0:	000b75c0 	call	b75c <__ledf2>
    3ec4:	103d6b0e 	bge	r2,zero,3474 <__alt_mem_onchip_memory2_0+0xfbfe3474>
    3ec8:	002b883a 	mov	r21,zero
    3ecc:	0023883a 	mov	r17,zero
    3ed0:	003f4c06 	br	3c04 <__alt_mem_onchip_memory2_0+0xfbfe3c04>
    3ed4:	d9800917 	ldw	r6,36(sp)
    3ed8:	e00b883a 	mov	r5,fp
    3edc:	8009883a 	mov	r4,r16
    3ee0:	00067800 	call	6780 <__pow5mult>
    3ee4:	1039883a 	mov	fp,r2
    3ee8:	003e2706 	br	3788 <__alt_mem_onchip_memory2_0+0xfbfe3788>
    3eec:	d8000b15 	stw	zero,44(sp)
    3ef0:	003c4906 	br	3018 <__alt_mem_onchip_memory2_0+0xfbfe3018>
    3ef4:	d9000917 	ldw	r4,36(sp)
    3ef8:	d9800a17 	ldw	r6,40(sp)
    3efc:	dd400915 	stw	r21,36(sp)
    3f00:	a905c83a 	sub	r2,r21,r4
    3f04:	308d883a 	add	r6,r6,r2
    3f08:	d9800a15 	stw	r6,40(sp)
    3f0c:	002b883a 	mov	r21,zero
    3f10:	003df206 	br	36dc <__alt_mem_onchip_memory2_0+0xfbfe36dc>
    3f14:	dc800e15 	stw	r18,56(sp)
    3f18:	982b883a 	mov	r21,r19
    3f1c:	04400084 	movi	r17,2
    3f20:	003c7406 	br	30f4 <__alt_mem_onchip_memory2_0+0xfbfe30f4>
    3f24:	04400044 	movi	r17,1
    3f28:	dc400c15 	stw	r17,48(sp)
    3f2c:	dc400615 	stw	r17,24(sp)
    3f30:	dc402215 	stw	r17,136(sp)
    3f34:	80001115 	stw	zero,68(r16)
    3f38:	000b883a 	mov	r5,zero
    3f3c:	003c4a06 	br	3068 <__alt_mem_onchip_memory2_0+0xfbfe3068>
    3f40:	3023883a 	mov	r17,r6
    3f44:	003ffb06 	br	3f34 <__alt_mem_onchip_memory2_0+0xfbfe3f34>
    3f48:	1000021e 	bne	r2,zero,3f54 <_dtoa_r+0x1254>
    3f4c:	4200004c 	andi	r8,r8,1
    3f50:	403e8f1e 	bne	r8,zero,3990 <__alt_mem_onchip_memory2_0+0xfbfe3990>
    3f54:	01000c04 	movi	r4,48
    3f58:	00000106 	br	3f60 <_dtoa_r+0x1260>
    3f5c:	102f883a 	mov	r23,r2
    3f60:	b8bfffc4 	addi	r2,r23,-1
    3f64:	10c00007 	ldb	r3,0(r2)
    3f68:	193ffc26 	beq	r3,r4,3f5c <__alt_mem_onchip_memory2_0+0xfbfe3f5c>
    3f6c:	003e9906 	br	39d4 <__alt_mem_onchip_memory2_0+0xfbfe39d4>
    3f70:	d9000517 	ldw	r4,20(sp)
    3f74:	012fc83a 	sub	r23,zero,r4
    3f78:	b800ad26 	beq	r23,zero,4230 <_dtoa_r+0x1530>
    3f7c:	b88003cc 	andi	r2,r23,15
    3f80:	100490fa 	slli	r2,r2,3
    3f84:	00c00074 	movhi	r3,1
    3f88:	18ffd604 	addi	r3,r3,-168
    3f8c:	1885883a 	add	r2,r3,r2
    3f90:	11800017 	ldw	r6,0(r2)
    3f94:	11c00117 	ldw	r7,4(r2)
    3f98:	b82fd13a 	srai	r23,r23,4
    3f9c:	9009883a 	mov	r4,r18
    3fa0:	980b883a 	mov	r5,r19
    3fa4:	000b83c0 	call	b83c <__muldf3>
    3fa8:	1029883a 	mov	r20,r2
    3fac:	182b883a 	mov	r21,r3
    3fb0:	b800f426 	beq	r23,zero,4384 <_dtoa_r+0x1684>
    3fb4:	02000074 	movhi	r8,1
    3fb8:	423fcc04 	addi	r8,r8,-208
    3fbc:	8029883a 	mov	r20,r16
    3fc0:	04400084 	movi	r17,2
    3fc4:	4021883a 	mov	r16,r8
    3fc8:	b980004c 	andi	r6,r23,1
    3fcc:	1009883a 	mov	r4,r2
    3fd0:	b82fd07a 	srai	r23,r23,1
    3fd4:	180b883a 	mov	r5,r3
    3fd8:	30000426 	beq	r6,zero,3fec <_dtoa_r+0x12ec>
    3fdc:	81800017 	ldw	r6,0(r16)
    3fe0:	81c00117 	ldw	r7,4(r16)
    3fe4:	8c400044 	addi	r17,r17,1
    3fe8:	000b83c0 	call	b83c <__muldf3>
    3fec:	84000204 	addi	r16,r16,8
    3ff0:	b83ff51e 	bne	r23,zero,3fc8 <__alt_mem_onchip_memory2_0+0xfbfe3fc8>
    3ff4:	a021883a 	mov	r16,r20
    3ff8:	182b883a 	mov	r21,r3
    3ffc:	1029883a 	mov	r20,r2
    4000:	003c5506 	br	3158 <__alt_mem_onchip_memory2_0+0xfbfe3158>
    4004:	d9800517 	ldw	r6,20(sp)
    4008:	d9000717 	ldw	r4,28(sp)
    400c:	00c00c04 	movi	r3,48
    4010:	31800044 	addi	r6,r6,1
    4014:	d9800515 	stw	r6,20(sp)
    4018:	20c00005 	stb	r3,0(r4)
    401c:	02000c44 	movi	r8,49
    4020:	003da206 	br	36ac <__alt_mem_onchip_memory2_0+0xfbfe36ac>
    4024:	89400117 	ldw	r5,4(r17)
    4028:	8009883a 	mov	r4,r16
    402c:	000613c0 	call	613c <_Balloc>
    4030:	89800417 	ldw	r6,16(r17)
    4034:	11000304 	addi	r4,r2,12
    4038:	89400304 	addi	r5,r17,12
    403c:	31800084 	addi	r6,r6,2
    4040:	318d883a 	add	r6,r6,r6
    4044:	318d883a 	add	r6,r6,r6
    4048:	1027883a 	mov	r19,r2
    404c:	00005440 	call	544 <memcpy>
    4050:	8009883a 	mov	r4,r16
    4054:	980b883a 	mov	r5,r19
    4058:	01800044 	movi	r6,1
    405c:	00068c00 	call	68c0 <__lshift>
    4060:	1029883a 	mov	r20,r2
    4064:	003e8606 	br	3a80 <__alt_mem_onchip_memory2_0+0xfbfe3a80>
    4068:	00800e44 	movi	r2,57
    406c:	90809526 	beq	r18,r2,42c4 <_dtoa_r+0x15c4>
    4070:	92000044 	addi	r8,r18,1
    4074:	003f2306 	br	3d04 <__alt_mem_onchip_memory2_0+0xfbfe3d04>
    4078:	9011883a 	mov	r8,r18
    407c:	8825883a 	mov	r18,r17
    4080:	a023883a 	mov	r17,r20
    4084:	003e3706 	br	3964 <__alt_mem_onchip_memory2_0+0xfbfe3964>
    4088:	002b883a 	mov	r21,zero
    408c:	0023883a 	mov	r17,zero
    4090:	003f5606 	br	3dec <__alt_mem_onchip_memory2_0+0xfbfe3dec>
    4094:	51bfffc4 	addi	r6,r10,-1
    4098:	300490fa 	slli	r2,r6,3
    409c:	00c00074 	movhi	r3,1
    40a0:	18ffd604 	addi	r3,r3,-168
    40a4:	1885883a 	add	r2,r3,r2
    40a8:	d9c00e17 	ldw	r7,56(sp)
    40ac:	11000017 	ldw	r4,0(r2)
    40b0:	11400117 	ldw	r5,4(r2)
    40b4:	d8800717 	ldw	r2,28(sp)
    40b8:	d9801015 	stw	r6,64(sp)
    40bc:	880d883a 	mov	r6,r17
    40c0:	da801615 	stw	r10,88(sp)
    40c4:	15c00044 	addi	r23,r2,1
    40c8:	000b83c0 	call	b83c <__muldf3>
    40cc:	a80b883a 	mov	r5,r21
    40d0:	a009883a 	mov	r4,r20
    40d4:	d8c01115 	stw	r3,68(sp)
    40d8:	d8800e15 	stw	r2,56(sp)
    40dc:	000c8300 	call	c830 <__fixdfsi>
    40e0:	1009883a 	mov	r4,r2
    40e4:	1023883a 	mov	r17,r2
    40e8:	000c8b80 	call	c8b8 <__floatsidf>
    40ec:	a009883a 	mov	r4,r20
    40f0:	a80b883a 	mov	r5,r21
    40f4:	100d883a 	mov	r6,r2
    40f8:	180f883a 	mov	r7,r3
    40fc:	000bf600 	call	bf60 <__subdf3>
    4100:	1813883a 	mov	r9,r3
    4104:	d8c00717 	ldw	r3,28(sp)
    4108:	8c400c04 	addi	r17,r17,48
    410c:	1011883a 	mov	r8,r2
    4110:	1c400005 	stb	r17,0(r3)
    4114:	da801617 	ldw	r10,88(sp)
    4118:	00800044 	movi	r2,1
    411c:	50802326 	beq	r10,r2,41ac <_dtoa_r+0x14ac>
    4120:	d8800717 	ldw	r2,28(sp)
    4124:	b82b883a 	mov	r21,r23
    4128:	dc001315 	stw	r16,76(sp)
    412c:	12a9883a 	add	r20,r2,r10
    4130:	4807883a 	mov	r3,r9
    4134:	4005883a 	mov	r2,r8
    4138:	dc801415 	stw	r18,80(sp)
    413c:	000d883a 	mov	r6,zero
    4140:	01d00934 	movhi	r7,16420
    4144:	1009883a 	mov	r4,r2
    4148:	180b883a 	mov	r5,r3
    414c:	000b83c0 	call	b83c <__muldf3>
    4150:	180b883a 	mov	r5,r3
    4154:	1009883a 	mov	r4,r2
    4158:	1821883a 	mov	r16,r3
    415c:	1025883a 	mov	r18,r2
    4160:	000c8300 	call	c830 <__fixdfsi>
    4164:	1009883a 	mov	r4,r2
    4168:	1023883a 	mov	r17,r2
    416c:	000c8b80 	call	c8b8 <__floatsidf>
    4170:	9009883a 	mov	r4,r18
    4174:	800b883a 	mov	r5,r16
    4178:	100d883a 	mov	r6,r2
    417c:	180f883a 	mov	r7,r3
    4180:	8c400c04 	addi	r17,r17,48
    4184:	000bf600 	call	bf60 <__subdf3>
    4188:	ad400044 	addi	r21,r21,1
    418c:	ac7fffc5 	stb	r17,-1(r21)
    4190:	ad3fea1e 	bne	r21,r20,413c <__alt_mem_onchip_memory2_0+0xfbfe413c>
    4194:	1813883a 	mov	r9,r3
    4198:	d8c01017 	ldw	r3,64(sp)
    419c:	dc001317 	ldw	r16,76(sp)
    41a0:	dc801417 	ldw	r18,80(sp)
    41a4:	1011883a 	mov	r8,r2
    41a8:	b8ef883a 	add	r23,r23,r3
    41ac:	d9000e17 	ldw	r4,56(sp)
    41b0:	d9401117 	ldw	r5,68(sp)
    41b4:	000d883a 	mov	r6,zero
    41b8:	01cff834 	movhi	r7,16352
    41bc:	da001715 	stw	r8,92(sp)
    41c0:	da401515 	stw	r9,84(sp)
    41c4:	000a4900 	call	a490 <__adddf3>
    41c8:	da001717 	ldw	r8,92(sp)
    41cc:	da401517 	ldw	r9,84(sp)
    41d0:	1009883a 	mov	r4,r2
    41d4:	400d883a 	mov	r6,r8
    41d8:	480f883a 	mov	r7,r9
    41dc:	180b883a 	mov	r5,r3
    41e0:	000b75c0 	call	b75c <__ledf2>
    41e4:	da001717 	ldw	r8,92(sp)
    41e8:	da401517 	ldw	r9,84(sp)
    41ec:	10003b0e 	bge	r2,zero,42dc <_dtoa_r+0x15dc>
    41f0:	d9001217 	ldw	r4,72(sp)
    41f4:	bd7fffc3 	ldbu	r21,-1(r23)
    41f8:	d9000515 	stw	r4,20(sp)
    41fc:	003d1c06 	br	3670 <__alt_mem_onchip_memory2_0+0xfbfe3670>
    4200:	d8c00817 	ldw	r3,32(sp)
    4204:	18a9c83a 	sub	r20,r3,r2
    4208:	0005883a 	mov	r2,zero
    420c:	003d3706 	br	36ec <__alt_mem_onchip_memory2_0+0xfbfe36ec>
    4210:	00800044 	movi	r2,1
    4214:	003dd006 	br	3958 <__alt_mem_onchip_memory2_0+0xfbfe3958>
    4218:	d8c00217 	ldw	r3,8(sp)
    421c:	00800d84 	movi	r2,54
    4220:	dd400917 	ldw	r21,36(sp)
    4224:	10c5c83a 	sub	r2,r2,r3
    4228:	dd000817 	ldw	r20,32(sp)
    422c:	003d2f06 	br	36ec <__alt_mem_onchip_memory2_0+0xfbfe36ec>
    4230:	9029883a 	mov	r20,r18
    4234:	982b883a 	mov	r21,r19
    4238:	04400084 	movi	r17,2
    423c:	003bc606 	br	3158 <__alt_mem_onchip_memory2_0+0xfbfe3158>
    4240:	d8800617 	ldw	r2,24(sp)
    4244:	103efc26 	beq	r2,zero,3e38 <__alt_mem_onchip_memory2_0+0xfbfe3e38>
    4248:	d8c00c17 	ldw	r3,48(sp)
    424c:	00fc890e 	bge	zero,r3,3474 <__alt_mem_onchip_memory2_0+0xfbfe3474>
    4250:	a80b883a 	mov	r5,r21
    4254:	a009883a 	mov	r4,r20
    4258:	000d883a 	mov	r6,zero
    425c:	01d00934 	movhi	r7,16420
    4260:	000b83c0 	call	b83c <__muldf3>
    4264:	89000044 	addi	r4,r17,1
    4268:	1029883a 	mov	r20,r2
    426c:	182b883a 	mov	r21,r3
    4270:	000c8b80 	call	c8b8 <__floatsidf>
    4274:	a009883a 	mov	r4,r20
    4278:	a80b883a 	mov	r5,r21
    427c:	100d883a 	mov	r6,r2
    4280:	180f883a 	mov	r7,r3
    4284:	000b83c0 	call	b83c <__muldf3>
    4288:	1009883a 	mov	r4,r2
    428c:	180b883a 	mov	r5,r3
    4290:	000d883a 	mov	r6,zero
    4294:	01d00734 	movhi	r7,16412
    4298:	000a4900 	call	a490 <__adddf3>
    429c:	d9000517 	ldw	r4,20(sp)
    42a0:	1023883a 	mov	r17,r2
    42a4:	00bf3034 	movhi	r2,64704
    42a8:	213fffc4 	addi	r4,r4,-1
    42ac:	1885883a 	add	r2,r3,r2
    42b0:	d9001215 	stw	r4,72(sp)
    42b4:	d8800e15 	stw	r2,56(sp)
    42b8:	da800c17 	ldw	r10,48(sp)
    42bc:	003bc306 	br	31cc <__alt_mem_onchip_memory2_0+0xfbfe31cc>
    42c0:	b039883a 	mov	fp,r22
    42c4:	01000e44 	movi	r4,57
    42c8:	8825883a 	mov	r18,r17
    42cc:	9dc00044 	addi	r23,r19,1
    42d0:	99000005 	stb	r4,0(r19)
    42d4:	a023883a 	mov	r17,r20
    42d8:	003dae06 	br	3994 <__alt_mem_onchip_memory2_0+0xfbfe3994>
    42dc:	d9800e17 	ldw	r6,56(sp)
    42e0:	d9c01117 	ldw	r7,68(sp)
    42e4:	0009883a 	mov	r4,zero
    42e8:	014ff834 	movhi	r5,16352
    42ec:	da001715 	stw	r8,92(sp)
    42f0:	da401515 	stw	r9,84(sp)
    42f4:	000bf600 	call	bf60 <__subdf3>
    42f8:	da001717 	ldw	r8,92(sp)
    42fc:	da401517 	ldw	r9,84(sp)
    4300:	1009883a 	mov	r4,r2
    4304:	180b883a 	mov	r5,r3
    4308:	400d883a 	mov	r6,r8
    430c:	480f883a 	mov	r7,r9
    4310:	000b67c0 	call	b67c <__gedf2>
    4314:	00bc570e 	bge	zero,r2,3474 <__alt_mem_onchip_memory2_0+0xfbfe3474>
    4318:	01000c04 	movi	r4,48
    431c:	00000106 	br	4324 <_dtoa_r+0x1624>
    4320:	102f883a 	mov	r23,r2
    4324:	b8bfffc4 	addi	r2,r23,-1
    4328:	10c00007 	ldb	r3,0(r2)
    432c:	193ffc26 	beq	r3,r4,4320 <__alt_mem_onchip_memory2_0+0xfbfe4320>
    4330:	d9801217 	ldw	r6,72(sp)
    4334:	d9800515 	stw	r6,20(sp)
    4338:	003c1f06 	br	33b8 <__alt_mem_onchip_memory2_0+0xfbfe33b8>
    433c:	d8801217 	ldw	r2,72(sp)
    4340:	dc001117 	ldw	r16,68(sp)
    4344:	d8800515 	stw	r2,20(sp)
    4348:	003cc906 	br	3670 <__alt_mem_onchip_memory2_0+0xfbfe3670>
    434c:	dd801317 	ldw	r22,76(sp)
    4350:	dc001117 	ldw	r16,68(sp)
    4354:	dcc01417 	ldw	r19,80(sp)
    4358:	dc801017 	ldw	r18,64(sp)
    435c:	003c4506 	br	3474 <__alt_mem_onchip_memory2_0+0xfbfe3474>
    4360:	103e5d1e 	bne	r2,zero,3cd8 <__alt_mem_onchip_memory2_0+0xfbfe3cd8>
    4364:	4080004c 	andi	r2,r8,1
    4368:	103e5b26 	beq	r2,zero,3cd8 <__alt_mem_onchip_memory2_0+0xfbfe3cd8>
    436c:	003e5706 	br	3ccc <__alt_mem_onchip_memory2_0+0xfbfe3ccc>
    4370:	d8c00317 	ldw	r3,12(sp)
    4374:	00800084 	movi	r2,2
    4378:	10c00a16 	blt	r2,r3,43a4 <_dtoa_r+0x16a4>
    437c:	d9000c17 	ldw	r4,48(sp)
    4380:	003e8306 	br	3d90 <__alt_mem_onchip_memory2_0+0xfbfe3d90>
    4384:	04400084 	movi	r17,2
    4388:	003b7306 	br	3158 <__alt_mem_onchip_memory2_0+0xfbfe3158>
    438c:	d9801217 	ldw	r6,72(sp)
    4390:	d9800515 	stw	r6,20(sp)
    4394:	003cb606 	br	3670 <__alt_mem_onchip_memory2_0+0xfbfe3670>
    4398:	d9001217 	ldw	r4,72(sp)
    439c:	d9000515 	stw	r4,20(sp)
    43a0:	003c0506 	br	33b8 <__alt_mem_onchip_memory2_0+0xfbfe33b8>
    43a4:	d9800c17 	ldw	r6,48(sp)
    43a8:	d9800615 	stw	r6,24(sp)
    43ac:	003e8306 	br	3dbc <__alt_mem_onchip_memory2_0+0xfbfe3dbc>
    43b0:	d9800317 	ldw	r6,12(sp)
    43b4:	00800084 	movi	r2,2
    43b8:	11800216 	blt	r2,r6,43c4 <_dtoa_r+0x16c4>
    43bc:	d8800c17 	ldw	r2,48(sp)
    43c0:	003da606 	br	3a5c <__alt_mem_onchip_memory2_0+0xfbfe3a5c>
    43c4:	d8800c17 	ldw	r2,48(sp)
    43c8:	d8800615 	stw	r2,24(sp)
    43cc:	003e7b06 	br	3dbc <__alt_mem_onchip_memory2_0+0xfbfe3dbc>
    43d0:	05000044 	movi	r20,1
    43d4:	003b0506 	br	2fec <__alt_mem_onchip_memory2_0+0xfbfe2fec>
    43d8:	8009883a 	mov	r4,r16
    43dc:	80001115 	stw	zero,68(r16)
    43e0:	000b883a 	mov	r5,zero
    43e4:	000613c0 	call	613c <_Balloc>
    43e8:	d8800715 	stw	r2,28(sp)
    43ec:	d8c00717 	ldw	r3,28(sp)
    43f0:	00bfffc4 	movi	r2,-1
    43f4:	01000044 	movi	r4,1
    43f8:	d8800c15 	stw	r2,48(sp)
    43fc:	80c01015 	stw	r3,64(r16)
    4400:	d9000b15 	stw	r4,44(sp)
    4404:	d8800615 	stw	r2,24(sp)
    4408:	d8002215 	stw	zero,136(sp)
    440c:	003c1906 	br	3474 <__alt_mem_onchip_memory2_0+0xfbfe3474>
    4410:	193d2926 	beq	r3,r4,38b8 <__alt_mem_onchip_memory2_0+0xfbfe38b8>
    4414:	00c00f04 	movi	r3,60
    4418:	1885c83a 	sub	r2,r3,r2
    441c:	003d7b06 	br	3a0c <__alt_mem_onchip_memory2_0+0xfbfe3a0c>
    4420:	000b883a 	mov	r5,zero
    4424:	003b1006 	br	3068 <__alt_mem_onchip_memory2_0+0xfbfe3068>

00004428 <__sflush_r>:
    4428:	2880030b 	ldhu	r2,12(r5)
    442c:	defffb04 	addi	sp,sp,-20
    4430:	dcc00315 	stw	r19,12(sp)
    4434:	dc400115 	stw	r17,4(sp)
    4438:	dfc00415 	stw	ra,16(sp)
    443c:	dc800215 	stw	r18,8(sp)
    4440:	dc000015 	stw	r16,0(sp)
    4444:	10c0020c 	andi	r3,r2,8
    4448:	2823883a 	mov	r17,r5
    444c:	2027883a 	mov	r19,r4
    4450:	1800311e 	bne	r3,zero,4518 <__sflush_r+0xf0>
    4454:	28c00117 	ldw	r3,4(r5)
    4458:	10820014 	ori	r2,r2,2048
    445c:	2880030d 	sth	r2,12(r5)
    4460:	00c04b0e 	bge	zero,r3,4590 <__sflush_r+0x168>
    4464:	8a000a17 	ldw	r8,40(r17)
    4468:	40002326 	beq	r8,zero,44f8 <__sflush_r+0xd0>
    446c:	9c000017 	ldw	r16,0(r19)
    4470:	10c4000c 	andi	r3,r2,4096
    4474:	98000015 	stw	zero,0(r19)
    4478:	18004826 	beq	r3,zero,459c <__sflush_r+0x174>
    447c:	89801417 	ldw	r6,80(r17)
    4480:	10c0010c 	andi	r3,r2,4
    4484:	18000626 	beq	r3,zero,44a0 <__sflush_r+0x78>
    4488:	88c00117 	ldw	r3,4(r17)
    448c:	88800c17 	ldw	r2,48(r17)
    4490:	30cdc83a 	sub	r6,r6,r3
    4494:	10000226 	beq	r2,zero,44a0 <__sflush_r+0x78>
    4498:	88800f17 	ldw	r2,60(r17)
    449c:	308dc83a 	sub	r6,r6,r2
    44a0:	89400717 	ldw	r5,28(r17)
    44a4:	9809883a 	mov	r4,r19
    44a8:	000f883a 	mov	r7,zero
    44ac:	403ee83a 	callr	r8
    44b0:	00ffffc4 	movi	r3,-1
    44b4:	10c04426 	beq	r2,r3,45c8 <__sflush_r+0x1a0>
    44b8:	88c0030b 	ldhu	r3,12(r17)
    44bc:	89000417 	ldw	r4,16(r17)
    44c0:	88000115 	stw	zero,4(r17)
    44c4:	197dffcc 	andi	r5,r3,63487
    44c8:	8940030d 	sth	r5,12(r17)
    44cc:	89000015 	stw	r4,0(r17)
    44d0:	18c4000c 	andi	r3,r3,4096
    44d4:	18002c1e 	bne	r3,zero,4588 <__sflush_r+0x160>
    44d8:	89400c17 	ldw	r5,48(r17)
    44dc:	9c000015 	stw	r16,0(r19)
    44e0:	28000526 	beq	r5,zero,44f8 <__sflush_r+0xd0>
    44e4:	88801004 	addi	r2,r17,64
    44e8:	28800226 	beq	r5,r2,44f4 <__sflush_r+0xcc>
    44ec:	9809883a 	mov	r4,r19
    44f0:	0004b800 	call	4b80 <_free_r>
    44f4:	88000c15 	stw	zero,48(r17)
    44f8:	0005883a 	mov	r2,zero
    44fc:	dfc00417 	ldw	ra,16(sp)
    4500:	dcc00317 	ldw	r19,12(sp)
    4504:	dc800217 	ldw	r18,8(sp)
    4508:	dc400117 	ldw	r17,4(sp)
    450c:	dc000017 	ldw	r16,0(sp)
    4510:	dec00504 	addi	sp,sp,20
    4514:	f800283a 	ret
    4518:	2c800417 	ldw	r18,16(r5)
    451c:	903ff626 	beq	r18,zero,44f8 <__alt_mem_onchip_memory2_0+0xfbfe44f8>
    4520:	2c000017 	ldw	r16,0(r5)
    4524:	108000cc 	andi	r2,r2,3
    4528:	2c800015 	stw	r18,0(r5)
    452c:	84a1c83a 	sub	r16,r16,r18
    4530:	1000131e 	bne	r2,zero,4580 <__sflush_r+0x158>
    4534:	28800517 	ldw	r2,20(r5)
    4538:	88800215 	stw	r2,8(r17)
    453c:	04000316 	blt	zero,r16,454c <__sflush_r+0x124>
    4540:	003fed06 	br	44f8 <__alt_mem_onchip_memory2_0+0xfbfe44f8>
    4544:	90a5883a 	add	r18,r18,r2
    4548:	043feb0e 	bge	zero,r16,44f8 <__alt_mem_onchip_memory2_0+0xfbfe44f8>
    454c:	88800917 	ldw	r2,36(r17)
    4550:	89400717 	ldw	r5,28(r17)
    4554:	800f883a 	mov	r7,r16
    4558:	900d883a 	mov	r6,r18
    455c:	9809883a 	mov	r4,r19
    4560:	103ee83a 	callr	r2
    4564:	80a1c83a 	sub	r16,r16,r2
    4568:	00bff616 	blt	zero,r2,4544 <__alt_mem_onchip_memory2_0+0xfbfe4544>
    456c:	88c0030b 	ldhu	r3,12(r17)
    4570:	00bfffc4 	movi	r2,-1
    4574:	18c01014 	ori	r3,r3,64
    4578:	88c0030d 	sth	r3,12(r17)
    457c:	003fdf06 	br	44fc <__alt_mem_onchip_memory2_0+0xfbfe44fc>
    4580:	0005883a 	mov	r2,zero
    4584:	003fec06 	br	4538 <__alt_mem_onchip_memory2_0+0xfbfe4538>
    4588:	88801415 	stw	r2,80(r17)
    458c:	003fd206 	br	44d8 <__alt_mem_onchip_memory2_0+0xfbfe44d8>
    4590:	28c00f17 	ldw	r3,60(r5)
    4594:	00ffb316 	blt	zero,r3,4464 <__alt_mem_onchip_memory2_0+0xfbfe4464>
    4598:	003fd706 	br	44f8 <__alt_mem_onchip_memory2_0+0xfbfe44f8>
    459c:	89400717 	ldw	r5,28(r17)
    45a0:	000d883a 	mov	r6,zero
    45a4:	9809883a 	mov	r4,r19
    45a8:	01c00044 	movi	r7,1
    45ac:	403ee83a 	callr	r8
    45b0:	100d883a 	mov	r6,r2
    45b4:	00bfffc4 	movi	r2,-1
    45b8:	30801426 	beq	r6,r2,460c <__sflush_r+0x1e4>
    45bc:	8880030b 	ldhu	r2,12(r17)
    45c0:	8a000a17 	ldw	r8,40(r17)
    45c4:	003fae06 	br	4480 <__alt_mem_onchip_memory2_0+0xfbfe4480>
    45c8:	98c00017 	ldw	r3,0(r19)
    45cc:	183fba26 	beq	r3,zero,44b8 <__alt_mem_onchip_memory2_0+0xfbfe44b8>
    45d0:	01000744 	movi	r4,29
    45d4:	19000626 	beq	r3,r4,45f0 <__sflush_r+0x1c8>
    45d8:	01000584 	movi	r4,22
    45dc:	19000426 	beq	r3,r4,45f0 <__sflush_r+0x1c8>
    45e0:	88c0030b 	ldhu	r3,12(r17)
    45e4:	18c01014 	ori	r3,r3,64
    45e8:	88c0030d 	sth	r3,12(r17)
    45ec:	003fc306 	br	44fc <__alt_mem_onchip_memory2_0+0xfbfe44fc>
    45f0:	8880030b 	ldhu	r2,12(r17)
    45f4:	88c00417 	ldw	r3,16(r17)
    45f8:	88000115 	stw	zero,4(r17)
    45fc:	10bdffcc 	andi	r2,r2,63487
    4600:	8880030d 	sth	r2,12(r17)
    4604:	88c00015 	stw	r3,0(r17)
    4608:	003fb306 	br	44d8 <__alt_mem_onchip_memory2_0+0xfbfe44d8>
    460c:	98800017 	ldw	r2,0(r19)
    4610:	103fea26 	beq	r2,zero,45bc <__alt_mem_onchip_memory2_0+0xfbfe45bc>
    4614:	00c00744 	movi	r3,29
    4618:	10c00226 	beq	r2,r3,4624 <__sflush_r+0x1fc>
    461c:	00c00584 	movi	r3,22
    4620:	10ffd21e 	bne	r2,r3,456c <__alt_mem_onchip_memory2_0+0xfbfe456c>
    4624:	9c000015 	stw	r16,0(r19)
    4628:	0005883a 	mov	r2,zero
    462c:	003fb306 	br	44fc <__alt_mem_onchip_memory2_0+0xfbfe44fc>

00004630 <_fflush_r>:
    4630:	defffd04 	addi	sp,sp,-12
    4634:	dc000115 	stw	r16,4(sp)
    4638:	dfc00215 	stw	ra,8(sp)
    463c:	2021883a 	mov	r16,r4
    4640:	20000226 	beq	r4,zero,464c <_fflush_r+0x1c>
    4644:	20800e17 	ldw	r2,56(r4)
    4648:	10000c26 	beq	r2,zero,467c <_fflush_r+0x4c>
    464c:	2880030f 	ldh	r2,12(r5)
    4650:	1000051e 	bne	r2,zero,4668 <_fflush_r+0x38>
    4654:	0005883a 	mov	r2,zero
    4658:	dfc00217 	ldw	ra,8(sp)
    465c:	dc000117 	ldw	r16,4(sp)
    4660:	dec00304 	addi	sp,sp,12
    4664:	f800283a 	ret
    4668:	8009883a 	mov	r4,r16
    466c:	dfc00217 	ldw	ra,8(sp)
    4670:	dc000117 	ldw	r16,4(sp)
    4674:	dec00304 	addi	sp,sp,12
    4678:	00044281 	jmpi	4428 <__sflush_r>
    467c:	d9400015 	stw	r5,0(sp)
    4680:	0004a0c0 	call	4a0c <__sinit>
    4684:	d9400017 	ldw	r5,0(sp)
    4688:	003ff006 	br	464c <__alt_mem_onchip_memory2_0+0xfbfe464c>

0000468c <fflush>:
    468c:	20000526 	beq	r4,zero,46a4 <fflush+0x18>
    4690:	00800074 	movhi	r2,1
    4694:	10874e04 	addi	r2,r2,7480
    4698:	200b883a 	mov	r5,r4
    469c:	11000017 	ldw	r4,0(r2)
    46a0:	00046301 	jmpi	4630 <_fflush_r>
    46a4:	00800074 	movhi	r2,1
    46a8:	10874d04 	addi	r2,r2,7476
    46ac:	11000017 	ldw	r4,0(r2)
    46b0:	01400034 	movhi	r5,0
    46b4:	29518c04 	addi	r5,r5,17968
    46b8:	00053f41 	jmpi	53f4 <_fwalk_reent>

000046bc <__fp_lock>:
    46bc:	0005883a 	mov	r2,zero
    46c0:	f800283a 	ret

000046c4 <__fp_unlock>:
    46c4:	0005883a 	mov	r2,zero
    46c8:	f800283a 	ret

000046cc <_cleanup_r>:
    46cc:	01400074 	movhi	r5,1
    46d0:	29647904 	addi	r5,r5,-28188
    46d4:	00053f41 	jmpi	53f4 <_fwalk_reent>

000046d8 <__sinit.part.1>:
    46d8:	defff704 	addi	sp,sp,-36
    46dc:	00c00034 	movhi	r3,0
    46e0:	dfc00815 	stw	ra,32(sp)
    46e4:	ddc00715 	stw	r23,28(sp)
    46e8:	dd800615 	stw	r22,24(sp)
    46ec:	dd400515 	stw	r21,20(sp)
    46f0:	dd000415 	stw	r20,16(sp)
    46f4:	dcc00315 	stw	r19,12(sp)
    46f8:	dc800215 	stw	r18,8(sp)
    46fc:	dc400115 	stw	r17,4(sp)
    4700:	dc000015 	stw	r16,0(sp)
    4704:	18d1b304 	addi	r3,r3,18124
    4708:	24000117 	ldw	r16,4(r4)
    470c:	20c00f15 	stw	r3,60(r4)
    4710:	2080bb04 	addi	r2,r4,748
    4714:	00c000c4 	movi	r3,3
    4718:	20c0b915 	stw	r3,740(r4)
    471c:	2080ba15 	stw	r2,744(r4)
    4720:	2000b815 	stw	zero,736(r4)
    4724:	05c00204 	movi	r23,8
    4728:	00800104 	movi	r2,4
    472c:	2025883a 	mov	r18,r4
    4730:	b80d883a 	mov	r6,r23
    4734:	81001704 	addi	r4,r16,92
    4738:	000b883a 	mov	r5,zero
    473c:	80000015 	stw	zero,0(r16)
    4740:	80000115 	stw	zero,4(r16)
    4744:	80000215 	stw	zero,8(r16)
    4748:	8080030d 	sth	r2,12(r16)
    474c:	80001915 	stw	zero,100(r16)
    4750:	8000038d 	sth	zero,14(r16)
    4754:	80000415 	stw	zero,16(r16)
    4758:	80000515 	stw	zero,20(r16)
    475c:	80000615 	stw	zero,24(r16)
    4760:	000067c0 	call	67c <memset>
    4764:	05800034 	movhi	r22,0
    4768:	94400217 	ldw	r17,8(r18)
    476c:	05400034 	movhi	r21,0
    4770:	05000034 	movhi	r20,0
    4774:	04c00034 	movhi	r19,0
    4778:	b59e1e04 	addi	r22,r22,30840
    477c:	ad5e3504 	addi	r21,r21,30932
    4780:	a51e5404 	addi	r20,r20,31056
    4784:	9cde6b04 	addi	r19,r19,31148
    4788:	85800815 	stw	r22,32(r16)
    478c:	85400915 	stw	r21,36(r16)
    4790:	85000a15 	stw	r20,40(r16)
    4794:	84c00b15 	stw	r19,44(r16)
    4798:	84000715 	stw	r16,28(r16)
    479c:	00800284 	movi	r2,10
    47a0:	8880030d 	sth	r2,12(r17)
    47a4:	00800044 	movi	r2,1
    47a8:	89001704 	addi	r4,r17,92
    47ac:	b80d883a 	mov	r6,r23
    47b0:	000b883a 	mov	r5,zero
    47b4:	88000015 	stw	zero,0(r17)
    47b8:	88000115 	stw	zero,4(r17)
    47bc:	88000215 	stw	zero,8(r17)
    47c0:	88001915 	stw	zero,100(r17)
    47c4:	8880038d 	sth	r2,14(r17)
    47c8:	88000415 	stw	zero,16(r17)
    47cc:	88000515 	stw	zero,20(r17)
    47d0:	88000615 	stw	zero,24(r17)
    47d4:	000067c0 	call	67c <memset>
    47d8:	94000317 	ldw	r16,12(r18)
    47dc:	00800484 	movi	r2,18
    47e0:	8c400715 	stw	r17,28(r17)
    47e4:	8d800815 	stw	r22,32(r17)
    47e8:	8d400915 	stw	r21,36(r17)
    47ec:	8d000a15 	stw	r20,40(r17)
    47f0:	8cc00b15 	stw	r19,44(r17)
    47f4:	8080030d 	sth	r2,12(r16)
    47f8:	00800084 	movi	r2,2
    47fc:	80000015 	stw	zero,0(r16)
    4800:	80000115 	stw	zero,4(r16)
    4804:	80000215 	stw	zero,8(r16)
    4808:	80001915 	stw	zero,100(r16)
    480c:	8080038d 	sth	r2,14(r16)
    4810:	80000415 	stw	zero,16(r16)
    4814:	80000515 	stw	zero,20(r16)
    4818:	80000615 	stw	zero,24(r16)
    481c:	81001704 	addi	r4,r16,92
    4820:	000b883a 	mov	r5,zero
    4824:	b80d883a 	mov	r6,r23
    4828:	000067c0 	call	67c <memset>
    482c:	00800044 	movi	r2,1
    4830:	84000715 	stw	r16,28(r16)
    4834:	85800815 	stw	r22,32(r16)
    4838:	85400915 	stw	r21,36(r16)
    483c:	85000a15 	stw	r20,40(r16)
    4840:	84c00b15 	stw	r19,44(r16)
    4844:	90800e15 	stw	r2,56(r18)
    4848:	dfc00817 	ldw	ra,32(sp)
    484c:	ddc00717 	ldw	r23,28(sp)
    4850:	dd800617 	ldw	r22,24(sp)
    4854:	dd400517 	ldw	r21,20(sp)
    4858:	dd000417 	ldw	r20,16(sp)
    485c:	dcc00317 	ldw	r19,12(sp)
    4860:	dc800217 	ldw	r18,8(sp)
    4864:	dc400117 	ldw	r17,4(sp)
    4868:	dc000017 	ldw	r16,0(sp)
    486c:	dec00904 	addi	sp,sp,36
    4870:	f800283a 	ret

00004874 <__sfmoreglue>:
    4874:	defffc04 	addi	sp,sp,-16
    4878:	dc400115 	stw	r17,4(sp)
    487c:	2c7fffc4 	addi	r17,r5,-1
    4880:	8c401a24 	muli	r17,r17,104
    4884:	dc800215 	stw	r18,8(sp)
    4888:	2825883a 	mov	r18,r5
    488c:	89401d04 	addi	r5,r17,116
    4890:	dc000015 	stw	r16,0(sp)
    4894:	dfc00315 	stw	ra,12(sp)
    4898:	00057500 	call	5750 <_malloc_r>
    489c:	1021883a 	mov	r16,r2
    48a0:	10000726 	beq	r2,zero,48c0 <__sfmoreglue+0x4c>
    48a4:	11000304 	addi	r4,r2,12
    48a8:	10000015 	stw	zero,0(r2)
    48ac:	14800115 	stw	r18,4(r2)
    48b0:	11000215 	stw	r4,8(r2)
    48b4:	000b883a 	mov	r5,zero
    48b8:	89801a04 	addi	r6,r17,104
    48bc:	000067c0 	call	67c <memset>
    48c0:	8005883a 	mov	r2,r16
    48c4:	dfc00317 	ldw	ra,12(sp)
    48c8:	dc800217 	ldw	r18,8(sp)
    48cc:	dc400117 	ldw	r17,4(sp)
    48d0:	dc000017 	ldw	r16,0(sp)
    48d4:	dec00404 	addi	sp,sp,16
    48d8:	f800283a 	ret

000048dc <__sfp>:
    48dc:	00800074 	movhi	r2,1
    48e0:	defffb04 	addi	sp,sp,-20
    48e4:	10874d04 	addi	r2,r2,7476
    48e8:	dc800215 	stw	r18,8(sp)
    48ec:	14800017 	ldw	r18,0(r2)
    48f0:	dcc00315 	stw	r19,12(sp)
    48f4:	dfc00415 	stw	ra,16(sp)
    48f8:	90800e17 	ldw	r2,56(r18)
    48fc:	dc400115 	stw	r17,4(sp)
    4900:	dc000015 	stw	r16,0(sp)
    4904:	2027883a 	mov	r19,r4
    4908:	1000021e 	bne	r2,zero,4914 <__sfp+0x38>
    490c:	9009883a 	mov	r4,r18
    4910:	00046d80 	call	46d8 <__sinit.part.1>
    4914:	9480b804 	addi	r18,r18,736
    4918:	047fffc4 	movi	r17,-1
    491c:	91400117 	ldw	r5,4(r18)
    4920:	94000217 	ldw	r16,8(r18)
    4924:	297fffc4 	addi	r5,r5,-1
    4928:	28000a16 	blt	r5,zero,4954 <__sfp+0x78>
    492c:	8080030f 	ldh	r2,12(r16)
    4930:	10000c26 	beq	r2,zero,4964 <__sfp+0x88>
    4934:	80c01d04 	addi	r3,r16,116
    4938:	00000206 	br	4944 <__sfp+0x68>
    493c:	18bfe60f 	ldh	r2,-104(r3)
    4940:	10000826 	beq	r2,zero,4964 <__sfp+0x88>
    4944:	297fffc4 	addi	r5,r5,-1
    4948:	1c3ffd04 	addi	r16,r3,-12
    494c:	18c01a04 	addi	r3,r3,104
    4950:	2c7ffa1e 	bne	r5,r17,493c <__alt_mem_onchip_memory2_0+0xfbfe493c>
    4954:	90800017 	ldw	r2,0(r18)
    4958:	10001d26 	beq	r2,zero,49d0 <__sfp+0xf4>
    495c:	1025883a 	mov	r18,r2
    4960:	003fee06 	br	491c <__alt_mem_onchip_memory2_0+0xfbfe491c>
    4964:	00bfffc4 	movi	r2,-1
    4968:	8080038d 	sth	r2,14(r16)
    496c:	00800044 	movi	r2,1
    4970:	8080030d 	sth	r2,12(r16)
    4974:	80001915 	stw	zero,100(r16)
    4978:	80000015 	stw	zero,0(r16)
    497c:	80000215 	stw	zero,8(r16)
    4980:	80000115 	stw	zero,4(r16)
    4984:	80000415 	stw	zero,16(r16)
    4988:	80000515 	stw	zero,20(r16)
    498c:	80000615 	stw	zero,24(r16)
    4990:	81001704 	addi	r4,r16,92
    4994:	000b883a 	mov	r5,zero
    4998:	01800204 	movi	r6,8
    499c:	000067c0 	call	67c <memset>
    49a0:	8005883a 	mov	r2,r16
    49a4:	80000c15 	stw	zero,48(r16)
    49a8:	80000d15 	stw	zero,52(r16)
    49ac:	80001115 	stw	zero,68(r16)
    49b0:	80001215 	stw	zero,72(r16)
    49b4:	dfc00417 	ldw	ra,16(sp)
    49b8:	dcc00317 	ldw	r19,12(sp)
    49bc:	dc800217 	ldw	r18,8(sp)
    49c0:	dc400117 	ldw	r17,4(sp)
    49c4:	dc000017 	ldw	r16,0(sp)
    49c8:	dec00504 	addi	sp,sp,20
    49cc:	f800283a 	ret
    49d0:	9809883a 	mov	r4,r19
    49d4:	01400104 	movi	r5,4
    49d8:	00048740 	call	4874 <__sfmoreglue>
    49dc:	90800015 	stw	r2,0(r18)
    49e0:	103fde1e 	bne	r2,zero,495c <__alt_mem_onchip_memory2_0+0xfbfe495c>
    49e4:	00800304 	movi	r2,12
    49e8:	98800015 	stw	r2,0(r19)
    49ec:	0005883a 	mov	r2,zero
    49f0:	003ff006 	br	49b4 <__alt_mem_onchip_memory2_0+0xfbfe49b4>

000049f4 <_cleanup>:
    49f4:	00800074 	movhi	r2,1
    49f8:	10874d04 	addi	r2,r2,7476
    49fc:	11000017 	ldw	r4,0(r2)
    4a00:	01400074 	movhi	r5,1
    4a04:	29647904 	addi	r5,r5,-28188
    4a08:	00053f41 	jmpi	53f4 <_fwalk_reent>

00004a0c <__sinit>:
    4a0c:	20800e17 	ldw	r2,56(r4)
    4a10:	10000126 	beq	r2,zero,4a18 <__sinit+0xc>
    4a14:	f800283a 	ret
    4a18:	00046d81 	jmpi	46d8 <__sinit.part.1>

00004a1c <__sfp_lock_acquire>:
    4a1c:	f800283a 	ret

00004a20 <__sfp_lock_release>:
    4a20:	f800283a 	ret

00004a24 <__sinit_lock_acquire>:
    4a24:	f800283a 	ret

00004a28 <__sinit_lock_release>:
    4a28:	f800283a 	ret

00004a2c <__fp_lock_all>:
    4a2c:	00800074 	movhi	r2,1
    4a30:	10874e04 	addi	r2,r2,7480
    4a34:	11000017 	ldw	r4,0(r2)
    4a38:	01400034 	movhi	r5,0
    4a3c:	2951af04 	addi	r5,r5,18108
    4a40:	00053301 	jmpi	5330 <_fwalk>

00004a44 <__fp_unlock_all>:
    4a44:	00800074 	movhi	r2,1
    4a48:	10874e04 	addi	r2,r2,7480
    4a4c:	11000017 	ldw	r4,0(r2)
    4a50:	01400034 	movhi	r5,0
    4a54:	2951b104 	addi	r5,r5,18116
    4a58:	00053301 	jmpi	5330 <_fwalk>

00004a5c <_malloc_trim_r>:
    4a5c:	defffb04 	addi	sp,sp,-20
    4a60:	dcc00315 	stw	r19,12(sp)
    4a64:	04c00074 	movhi	r19,1
    4a68:	dc800215 	stw	r18,8(sp)
    4a6c:	dc400115 	stw	r17,4(sp)
    4a70:	dc000015 	stw	r16,0(sp)
    4a74:	dfc00415 	stw	ra,16(sp)
    4a78:	2821883a 	mov	r16,r5
    4a7c:	9cc1c504 	addi	r19,r19,1812
    4a80:	2025883a 	mov	r18,r4
    4a84:	000d0500 	call	d050 <__malloc_lock>
    4a88:	98800217 	ldw	r2,8(r19)
    4a8c:	14400117 	ldw	r17,4(r2)
    4a90:	00bfff04 	movi	r2,-4
    4a94:	88a2703a 	and	r17,r17,r2
    4a98:	8c21c83a 	sub	r16,r17,r16
    4a9c:	8403fbc4 	addi	r16,r16,4079
    4aa0:	8020d33a 	srli	r16,r16,12
    4aa4:	0083ffc4 	movi	r2,4095
    4aa8:	843fffc4 	addi	r16,r16,-1
    4aac:	8020933a 	slli	r16,r16,12
    4ab0:	1400060e 	bge	r2,r16,4acc <_malloc_trim_r+0x70>
    4ab4:	9009883a 	mov	r4,r18
    4ab8:	000b883a 	mov	r5,zero
    4abc:	00078240 	call	7824 <_sbrk_r>
    4ac0:	98c00217 	ldw	r3,8(r19)
    4ac4:	1c47883a 	add	r3,r3,r17
    4ac8:	10c00a26 	beq	r2,r3,4af4 <_malloc_trim_r+0x98>
    4acc:	9009883a 	mov	r4,r18
    4ad0:	000d0700 	call	d070 <__malloc_unlock>
    4ad4:	0005883a 	mov	r2,zero
    4ad8:	dfc00417 	ldw	ra,16(sp)
    4adc:	dcc00317 	ldw	r19,12(sp)
    4ae0:	dc800217 	ldw	r18,8(sp)
    4ae4:	dc400117 	ldw	r17,4(sp)
    4ae8:	dc000017 	ldw	r16,0(sp)
    4aec:	dec00504 	addi	sp,sp,20
    4af0:	f800283a 	ret
    4af4:	9009883a 	mov	r4,r18
    4af8:	040bc83a 	sub	r5,zero,r16
    4afc:	00078240 	call	7824 <_sbrk_r>
    4b00:	00ffffc4 	movi	r3,-1
    4b04:	10c00d26 	beq	r2,r3,4b3c <_malloc_trim_r+0xe0>
    4b08:	00c00074 	movhi	r3,1
    4b0c:	18ce2e04 	addi	r3,r3,14520
    4b10:	18800017 	ldw	r2,0(r3)
    4b14:	99000217 	ldw	r4,8(r19)
    4b18:	8c23c83a 	sub	r17,r17,r16
    4b1c:	8c400054 	ori	r17,r17,1
    4b20:	1421c83a 	sub	r16,r2,r16
    4b24:	24400115 	stw	r17,4(r4)
    4b28:	9009883a 	mov	r4,r18
    4b2c:	1c000015 	stw	r16,0(r3)
    4b30:	000d0700 	call	d070 <__malloc_unlock>
    4b34:	00800044 	movi	r2,1
    4b38:	003fe706 	br	4ad8 <__alt_mem_onchip_memory2_0+0xfbfe4ad8>
    4b3c:	9009883a 	mov	r4,r18
    4b40:	000b883a 	mov	r5,zero
    4b44:	00078240 	call	7824 <_sbrk_r>
    4b48:	99000217 	ldw	r4,8(r19)
    4b4c:	014003c4 	movi	r5,15
    4b50:	1107c83a 	sub	r3,r2,r4
    4b54:	28ffdd0e 	bge	r5,r3,4acc <__alt_mem_onchip_memory2_0+0xfbfe4acc>
    4b58:	01400074 	movhi	r5,1
    4b5c:	29475004 	addi	r5,r5,7488
    4b60:	29400017 	ldw	r5,0(r5)
    4b64:	18c00054 	ori	r3,r3,1
    4b68:	20c00115 	stw	r3,4(r4)
    4b6c:	00c00074 	movhi	r3,1
    4b70:	1145c83a 	sub	r2,r2,r5
    4b74:	18ce2e04 	addi	r3,r3,14520
    4b78:	18800015 	stw	r2,0(r3)
    4b7c:	003fd306 	br	4acc <__alt_mem_onchip_memory2_0+0xfbfe4acc>

00004b80 <_free_r>:
    4b80:	28004c26 	beq	r5,zero,4cb4 <_free_r+0x134>
    4b84:	defffd04 	addi	sp,sp,-12
    4b88:	dc400115 	stw	r17,4(sp)
    4b8c:	dc000015 	stw	r16,0(sp)
    4b90:	2023883a 	mov	r17,r4
    4b94:	2821883a 	mov	r16,r5
    4b98:	dfc00215 	stw	ra,8(sp)
    4b9c:	000d0500 	call	d050 <__malloc_lock>
    4ba0:	813fff17 	ldw	r4,-4(r16)
    4ba4:	00bfff84 	movi	r2,-2
    4ba8:	02400074 	movhi	r9,1
    4bac:	81bffe04 	addi	r6,r16,-8
    4bb0:	2084703a 	and	r2,r4,r2
    4bb4:	4a41c504 	addi	r9,r9,1812
    4bb8:	308b883a 	add	r5,r6,r2
    4bbc:	2a000117 	ldw	r8,4(r5)
    4bc0:	49c00217 	ldw	r7,8(r9)
    4bc4:	00ffff04 	movi	r3,-4
    4bc8:	40c6703a 	and	r3,r8,r3
    4bcc:	39405326 	beq	r7,r5,4d1c <_free_r+0x19c>
    4bd0:	28c00115 	stw	r3,4(r5)
    4bd4:	2100004c 	andi	r4,r4,1
    4bd8:	2000091e 	bne	r4,zero,4c00 <_free_r+0x80>
    4bdc:	81fffe17 	ldw	r7,-8(r16)
    4be0:	4a000204 	addi	r8,r9,8
    4be4:	31cdc83a 	sub	r6,r6,r7
    4be8:	31000217 	ldw	r4,8(r6)
    4bec:	11c5883a 	add	r2,r2,r7
    4bf0:	22006126 	beq	r4,r8,4d78 <_free_r+0x1f8>
    4bf4:	31c00317 	ldw	r7,12(r6)
    4bf8:	21c00315 	stw	r7,12(r4)
    4bfc:	39000215 	stw	r4,8(r7)
    4c00:	28c9883a 	add	r4,r5,r3
    4c04:	21c00117 	ldw	r7,4(r4)
    4c08:	39c0004c 	andi	r7,r7,1
    4c0c:	38000d1e 	bne	r7,zero,4c44 <_free_r+0xc4>
    4c10:	29000217 	ldw	r4,8(r5)
    4c14:	10c5883a 	add	r2,r2,r3
    4c18:	00c00074 	movhi	r3,1
    4c1c:	18c1c704 	addi	r3,r3,1820
    4c20:	20c07526 	beq	r4,r3,4df8 <_free_r+0x278>
    4c24:	29c00317 	ldw	r7,12(r5)
    4c28:	11400054 	ori	r5,r2,1
    4c2c:	3087883a 	add	r3,r6,r2
    4c30:	21c00315 	stw	r7,12(r4)
    4c34:	39000215 	stw	r4,8(r7)
    4c38:	31400115 	stw	r5,4(r6)
    4c3c:	18800015 	stw	r2,0(r3)
    4c40:	00000406 	br	4c54 <_free_r+0xd4>
    4c44:	10c00054 	ori	r3,r2,1
    4c48:	30c00115 	stw	r3,4(r6)
    4c4c:	3087883a 	add	r3,r6,r2
    4c50:	18800015 	stw	r2,0(r3)
    4c54:	00c07fc4 	movi	r3,511
    4c58:	18801736 	bltu	r3,r2,4cb8 <_free_r+0x138>
    4c5c:	1004d0fa 	srli	r2,r2,3
    4c60:	01400044 	movi	r5,1
    4c64:	49000117 	ldw	r4,4(r9)
    4c68:	1087883a 	add	r3,r2,r2
    4c6c:	18c7883a 	add	r3,r3,r3
    4c70:	1005d0ba 	srai	r2,r2,2
    4c74:	18c7883a 	add	r3,r3,r3
    4c78:	1a47883a 	add	r3,r3,r9
    4c7c:	19c00217 	ldw	r7,8(r3)
    4c80:	2884983a 	sll	r2,r5,r2
    4c84:	30c00315 	stw	r3,12(r6)
    4c88:	31c00215 	stw	r7,8(r6)
    4c8c:	1104b03a 	or	r2,r2,r4
    4c90:	19800215 	stw	r6,8(r3)
    4c94:	48800115 	stw	r2,4(r9)
    4c98:	39800315 	stw	r6,12(r7)
    4c9c:	8809883a 	mov	r4,r17
    4ca0:	dfc00217 	ldw	ra,8(sp)
    4ca4:	dc400117 	ldw	r17,4(sp)
    4ca8:	dc000017 	ldw	r16,0(sp)
    4cac:	dec00304 	addi	sp,sp,12
    4cb0:	000d0701 	jmpi	d070 <__malloc_unlock>
    4cb4:	f800283a 	ret
    4cb8:	1006d27a 	srli	r3,r2,9
    4cbc:	01000104 	movi	r4,4
    4cc0:	20c04036 	bltu	r4,r3,4dc4 <_free_r+0x244>
    4cc4:	1006d1ba 	srli	r3,r2,6
    4cc8:	19400e04 	addi	r5,r3,56
    4ccc:	2947883a 	add	r3,r5,r5
    4cd0:	18c7883a 	add	r3,r3,r3
    4cd4:	18c7883a 	add	r3,r3,r3
    4cd8:	1a49883a 	add	r4,r3,r9
    4cdc:	20c00217 	ldw	r3,8(r4)
    4ce0:	01c00074 	movhi	r7,1
    4ce4:	39c1c504 	addi	r7,r7,1812
    4ce8:	19003b26 	beq	r3,r4,4dd8 <_free_r+0x258>
    4cec:	01ffff04 	movi	r7,-4
    4cf0:	19400117 	ldw	r5,4(r3)
    4cf4:	29ca703a 	and	r5,r5,r7
    4cf8:	1140022e 	bgeu	r2,r5,4d04 <_free_r+0x184>
    4cfc:	18c00217 	ldw	r3,8(r3)
    4d00:	20fffb1e 	bne	r4,r3,4cf0 <__alt_mem_onchip_memory2_0+0xfbfe4cf0>
    4d04:	18800317 	ldw	r2,12(r3)
    4d08:	30800315 	stw	r2,12(r6)
    4d0c:	30c00215 	stw	r3,8(r6)
    4d10:	11800215 	stw	r6,8(r2)
    4d14:	19800315 	stw	r6,12(r3)
    4d18:	003fe006 	br	4c9c <__alt_mem_onchip_memory2_0+0xfbfe4c9c>
    4d1c:	2100004c 	andi	r4,r4,1
    4d20:	1885883a 	add	r2,r3,r2
    4d24:	2000071e 	bne	r4,zero,4d44 <_free_r+0x1c4>
    4d28:	817ffe17 	ldw	r5,-8(r16)
    4d2c:	314dc83a 	sub	r6,r6,r5
    4d30:	30c00317 	ldw	r3,12(r6)
    4d34:	31000217 	ldw	r4,8(r6)
    4d38:	1145883a 	add	r2,r2,r5
    4d3c:	20c00315 	stw	r3,12(r4)
    4d40:	19000215 	stw	r4,8(r3)
    4d44:	10c00054 	ori	r3,r2,1
    4d48:	30c00115 	stw	r3,4(r6)
    4d4c:	00c00074 	movhi	r3,1
    4d50:	18c75104 	addi	r3,r3,7492
    4d54:	18c00017 	ldw	r3,0(r3)
    4d58:	49800215 	stw	r6,8(r9)
    4d5c:	10ffcf36 	bltu	r2,r3,4c9c <__alt_mem_onchip_memory2_0+0xfbfe4c9c>
    4d60:	00800074 	movhi	r2,1
    4d64:	108e2504 	addi	r2,r2,14484
    4d68:	11400017 	ldw	r5,0(r2)
    4d6c:	8809883a 	mov	r4,r17
    4d70:	0004a5c0 	call	4a5c <_malloc_trim_r>
    4d74:	003fc906 	br	4c9c <__alt_mem_onchip_memory2_0+0xfbfe4c9c>
    4d78:	28c9883a 	add	r4,r5,r3
    4d7c:	21000117 	ldw	r4,4(r4)
    4d80:	2100004c 	andi	r4,r4,1
    4d84:	20000a1e 	bne	r4,zero,4db0 <_free_r+0x230>
    4d88:	29000317 	ldw	r4,12(r5)
    4d8c:	29400217 	ldw	r5,8(r5)
    4d90:	10c5883a 	add	r2,r2,r3
    4d94:	10c00054 	ori	r3,r2,1
    4d98:	29000315 	stw	r4,12(r5)
    4d9c:	21400215 	stw	r5,8(r4)
    4da0:	30c00115 	stw	r3,4(r6)
    4da4:	308d883a 	add	r6,r6,r2
    4da8:	30800015 	stw	r2,0(r6)
    4dac:	003fbb06 	br	4c9c <__alt_mem_onchip_memory2_0+0xfbfe4c9c>
    4db0:	10c00054 	ori	r3,r2,1
    4db4:	30c00115 	stw	r3,4(r6)
    4db8:	308d883a 	add	r6,r6,r2
    4dbc:	30800015 	stw	r2,0(r6)
    4dc0:	003fb606 	br	4c9c <__alt_mem_onchip_memory2_0+0xfbfe4c9c>
    4dc4:	01000504 	movi	r4,20
    4dc8:	20c01436 	bltu	r4,r3,4e1c <_free_r+0x29c>
    4dcc:	194016c4 	addi	r5,r3,91
    4dd0:	2947883a 	add	r3,r5,r5
    4dd4:	003fbe06 	br	4cd0 <__alt_mem_onchip_memory2_0+0xfbfe4cd0>
    4dd8:	280bd0ba 	srai	r5,r5,2
    4ddc:	00800044 	movi	r2,1
    4de0:	39000117 	ldw	r4,4(r7)
    4de4:	114a983a 	sll	r5,r2,r5
    4de8:	1805883a 	mov	r2,r3
    4dec:	2908b03a 	or	r4,r5,r4
    4df0:	39000115 	stw	r4,4(r7)
    4df4:	003fc406 	br	4d08 <__alt_mem_onchip_memory2_0+0xfbfe4d08>
    4df8:	49800515 	stw	r6,20(r9)
    4dfc:	49800415 	stw	r6,16(r9)
    4e00:	10c00054 	ori	r3,r2,1
    4e04:	31000315 	stw	r4,12(r6)
    4e08:	31000215 	stw	r4,8(r6)
    4e0c:	30c00115 	stw	r3,4(r6)
    4e10:	308d883a 	add	r6,r6,r2
    4e14:	30800015 	stw	r2,0(r6)
    4e18:	003fa006 	br	4c9c <__alt_mem_onchip_memory2_0+0xfbfe4c9c>
    4e1c:	01001504 	movi	r4,84
    4e20:	20c00436 	bltu	r4,r3,4e34 <_free_r+0x2b4>
    4e24:	1006d33a 	srli	r3,r2,12
    4e28:	19401b84 	addi	r5,r3,110
    4e2c:	2947883a 	add	r3,r5,r5
    4e30:	003fa706 	br	4cd0 <__alt_mem_onchip_memory2_0+0xfbfe4cd0>
    4e34:	01005504 	movi	r4,340
    4e38:	20c00436 	bltu	r4,r3,4e4c <_free_r+0x2cc>
    4e3c:	1006d3fa 	srli	r3,r2,15
    4e40:	19401dc4 	addi	r5,r3,119
    4e44:	2947883a 	add	r3,r5,r5
    4e48:	003fa106 	br	4cd0 <__alt_mem_onchip_memory2_0+0xfbfe4cd0>
    4e4c:	01015504 	movi	r4,1364
    4e50:	20c00436 	bltu	r4,r3,4e64 <_free_r+0x2e4>
    4e54:	1006d4ba 	srli	r3,r2,18
    4e58:	19401f04 	addi	r5,r3,124
    4e5c:	2947883a 	add	r3,r5,r5
    4e60:	003f9b06 	br	4cd0 <__alt_mem_onchip_memory2_0+0xfbfe4cd0>
    4e64:	00c03f04 	movi	r3,252
    4e68:	01401f84 	movi	r5,126
    4e6c:	003f9806 	br	4cd0 <__alt_mem_onchip_memory2_0+0xfbfe4cd0>

00004e70 <__sfvwrite_r>:
    4e70:	30800217 	ldw	r2,8(r6)
    4e74:	10006726 	beq	r2,zero,5014 <__sfvwrite_r+0x1a4>
    4e78:	defff404 	addi	sp,sp,-48
    4e7c:	dd000615 	stw	r20,24(sp)
    4e80:	2029883a 	mov	r20,r4
    4e84:	2900030b 	ldhu	r4,12(r5)
    4e88:	ddc00915 	stw	r23,36(sp)
    4e8c:	dc000215 	stw	r16,8(sp)
    4e90:	dfc00b15 	stw	ra,44(sp)
    4e94:	df000a15 	stw	fp,40(sp)
    4e98:	dd800815 	stw	r22,32(sp)
    4e9c:	dd400715 	stw	r21,28(sp)
    4ea0:	dcc00515 	stw	r19,20(sp)
    4ea4:	dc800415 	stw	r18,16(sp)
    4ea8:	dc400315 	stw	r17,12(sp)
    4eac:	2080020c 	andi	r2,r4,8
    4eb0:	2821883a 	mov	r16,r5
    4eb4:	302f883a 	mov	r23,r6
    4eb8:	10002726 	beq	r2,zero,4f58 <__sfvwrite_r+0xe8>
    4ebc:	28800417 	ldw	r2,16(r5)
    4ec0:	10002526 	beq	r2,zero,4f58 <__sfvwrite_r+0xe8>
    4ec4:	2080008c 	andi	r2,r4,2
    4ec8:	bc400017 	ldw	r17,0(r23)
    4ecc:	10002a26 	beq	r2,zero,4f78 <__sfvwrite_r+0x108>
    4ed0:	05600034 	movhi	r21,32768
    4ed4:	0027883a 	mov	r19,zero
    4ed8:	0025883a 	mov	r18,zero
    4edc:	ad7f0004 	addi	r21,r21,-1024
    4ee0:	980d883a 	mov	r6,r19
    4ee4:	a009883a 	mov	r4,r20
    4ee8:	90004626 	beq	r18,zero,5004 <__sfvwrite_r+0x194>
    4eec:	900f883a 	mov	r7,r18
    4ef0:	81400717 	ldw	r5,28(r16)
    4ef4:	ac80022e 	bgeu	r21,r18,4f00 <__sfvwrite_r+0x90>
    4ef8:	01e00034 	movhi	r7,32768
    4efc:	39ff0004 	addi	r7,r7,-1024
    4f00:	80800917 	ldw	r2,36(r16)
    4f04:	103ee83a 	callr	r2
    4f08:	0080520e 	bge	zero,r2,5054 <__sfvwrite_r+0x1e4>
    4f0c:	b8c00217 	ldw	r3,8(r23)
    4f10:	98a7883a 	add	r19,r19,r2
    4f14:	90a5c83a 	sub	r18,r18,r2
    4f18:	1885c83a 	sub	r2,r3,r2
    4f1c:	b8800215 	stw	r2,8(r23)
    4f20:	103fef1e 	bne	r2,zero,4ee0 <__alt_mem_onchip_memory2_0+0xfbfe4ee0>
    4f24:	0005883a 	mov	r2,zero
    4f28:	dfc00b17 	ldw	ra,44(sp)
    4f2c:	df000a17 	ldw	fp,40(sp)
    4f30:	ddc00917 	ldw	r23,36(sp)
    4f34:	dd800817 	ldw	r22,32(sp)
    4f38:	dd400717 	ldw	r21,28(sp)
    4f3c:	dd000617 	ldw	r20,24(sp)
    4f40:	dcc00517 	ldw	r19,20(sp)
    4f44:	dc800417 	ldw	r18,16(sp)
    4f48:	dc400317 	ldw	r17,12(sp)
    4f4c:	dc000217 	ldw	r16,8(sp)
    4f50:	dec00c04 	addi	sp,sp,48
    4f54:	f800283a 	ret
    4f58:	a009883a 	mov	r4,r20
    4f5c:	800b883a 	mov	r5,r16
    4f60:	00029ac0 	call	29ac <__swsetup_r>
    4f64:	1000ec1e 	bne	r2,zero,5318 <__sfvwrite_r+0x4a8>
    4f68:	8100030b 	ldhu	r4,12(r16)
    4f6c:	bc400017 	ldw	r17,0(r23)
    4f70:	2080008c 	andi	r2,r4,2
    4f74:	103fd61e 	bne	r2,zero,4ed0 <__alt_mem_onchip_memory2_0+0xfbfe4ed0>
    4f78:	2080004c 	andi	r2,r4,1
    4f7c:	10003a1e 	bne	r2,zero,5068 <__sfvwrite_r+0x1f8>
    4f80:	0039883a 	mov	fp,zero
    4f84:	0025883a 	mov	r18,zero
    4f88:	90001a26 	beq	r18,zero,4ff4 <__sfvwrite_r+0x184>
    4f8c:	2080800c 	andi	r2,r4,512
    4f90:	85800217 	ldw	r22,8(r16)
    4f94:	10007626 	beq	r2,zero,5170 <__sfvwrite_r+0x300>
    4f98:	b027883a 	mov	r19,r22
    4f9c:	95809436 	bltu	r18,r22,51f0 <__sfvwrite_r+0x380>
    4fa0:	2081200c 	andi	r2,r4,1152
    4fa4:	10009f1e 	bne	r2,zero,5224 <__sfvwrite_r+0x3b4>
    4fa8:	81000017 	ldw	r4,0(r16)
    4fac:	e00b883a 	mov	r5,fp
    4fb0:	980d883a 	mov	r6,r19
    4fb4:	0005fe00 	call	5fe0 <memmove>
    4fb8:	81000217 	ldw	r4,8(r16)
    4fbc:	81400017 	ldw	r5,0(r16)
    4fc0:	9005883a 	mov	r2,r18
    4fc4:	2587c83a 	sub	r3,r4,r22
    4fc8:	2ce7883a 	add	r19,r5,r19
    4fcc:	80c00215 	stw	r3,8(r16)
    4fd0:	84c00015 	stw	r19,0(r16)
    4fd4:	b8c00217 	ldw	r3,8(r23)
    4fd8:	e0b9883a 	add	fp,fp,r2
    4fdc:	90a5c83a 	sub	r18,r18,r2
    4fe0:	1885c83a 	sub	r2,r3,r2
    4fe4:	b8800215 	stw	r2,8(r23)
    4fe8:	103fce26 	beq	r2,zero,4f24 <__alt_mem_onchip_memory2_0+0xfbfe4f24>
    4fec:	8100030b 	ldhu	r4,12(r16)
    4ff0:	903fe61e 	bne	r18,zero,4f8c <__alt_mem_onchip_memory2_0+0xfbfe4f8c>
    4ff4:	8f000017 	ldw	fp,0(r17)
    4ff8:	8c800117 	ldw	r18,4(r17)
    4ffc:	8c400204 	addi	r17,r17,8
    5000:	003fe106 	br	4f88 <__alt_mem_onchip_memory2_0+0xfbfe4f88>
    5004:	8cc00017 	ldw	r19,0(r17)
    5008:	8c800117 	ldw	r18,4(r17)
    500c:	8c400204 	addi	r17,r17,8
    5010:	003fb306 	br	4ee0 <__alt_mem_onchip_memory2_0+0xfbfe4ee0>
    5014:	0005883a 	mov	r2,zero
    5018:	f800283a 	ret
    501c:	00a00034 	movhi	r2,32768
    5020:	10bfffc4 	addi	r2,r2,-1
    5024:	9009883a 	mov	r4,r18
    5028:	1480012e 	bgeu	r2,r18,5030 <__sfvwrite_r+0x1c0>
    502c:	1009883a 	mov	r4,r2
    5030:	980b883a 	mov	r5,r19
    5034:	000a3d00 	call	a3d0 <__divsi3>
    5038:	81400717 	ldw	r5,28(r16)
    503c:	80c00917 	ldw	r3,36(r16)
    5040:	988f383a 	mul	r7,r19,r2
    5044:	a009883a 	mov	r4,r20
    5048:	e00d883a 	mov	r6,fp
    504c:	183ee83a 	callr	r3
    5050:	00bfe016 	blt	zero,r2,4fd4 <__alt_mem_onchip_memory2_0+0xfbfe4fd4>
    5054:	8080030b 	ldhu	r2,12(r16)
    5058:	10801014 	ori	r2,r2,64
    505c:	8080030d 	sth	r2,12(r16)
    5060:	00bfffc4 	movi	r2,-1
    5064:	003fb006 	br	4f28 <__alt_mem_onchip_memory2_0+0xfbfe4f28>
    5068:	0027883a 	mov	r19,zero
    506c:	0011883a 	mov	r8,zero
    5070:	0039883a 	mov	fp,zero
    5074:	0025883a 	mov	r18,zero
    5078:	90001f26 	beq	r18,zero,50f8 <__sfvwrite_r+0x288>
    507c:	40006026 	beq	r8,zero,5200 <__sfvwrite_r+0x390>
    5080:	982b883a 	mov	r21,r19
    5084:	94c0012e 	bgeu	r18,r19,508c <__sfvwrite_r+0x21c>
    5088:	902b883a 	mov	r21,r18
    508c:	81000017 	ldw	r4,0(r16)
    5090:	80800417 	ldw	r2,16(r16)
    5094:	a82d883a 	mov	r22,r21
    5098:	81800217 	ldw	r6,8(r16)
    509c:	81c00517 	ldw	r7,20(r16)
    50a0:	1100022e 	bgeu	r2,r4,50ac <__sfvwrite_r+0x23c>
    50a4:	31c7883a 	add	r3,r6,r7
    50a8:	1d401816 	blt	r3,r21,510c <__sfvwrite_r+0x29c>
    50ac:	a9c04416 	blt	r21,r7,51c0 <__sfvwrite_r+0x350>
    50b0:	80800917 	ldw	r2,36(r16)
    50b4:	81400717 	ldw	r5,28(r16)
    50b8:	a009883a 	mov	r4,r20
    50bc:	da000115 	stw	r8,4(sp)
    50c0:	e00d883a 	mov	r6,fp
    50c4:	103ee83a 	callr	r2
    50c8:	102d883a 	mov	r22,r2
    50cc:	da000117 	ldw	r8,4(sp)
    50d0:	00bfe00e 	bge	zero,r2,5054 <__alt_mem_onchip_memory2_0+0xfbfe5054>
    50d4:	9da7c83a 	sub	r19,r19,r22
    50d8:	98001f26 	beq	r19,zero,5158 <__sfvwrite_r+0x2e8>
    50dc:	b8800217 	ldw	r2,8(r23)
    50e0:	e5b9883a 	add	fp,fp,r22
    50e4:	95a5c83a 	sub	r18,r18,r22
    50e8:	15adc83a 	sub	r22,r2,r22
    50ec:	bd800215 	stw	r22,8(r23)
    50f0:	b03f8c26 	beq	r22,zero,4f24 <__alt_mem_onchip_memory2_0+0xfbfe4f24>
    50f4:	903fe11e 	bne	r18,zero,507c <__alt_mem_onchip_memory2_0+0xfbfe507c>
    50f8:	8f000017 	ldw	fp,0(r17)
    50fc:	8c800117 	ldw	r18,4(r17)
    5100:	0011883a 	mov	r8,zero
    5104:	8c400204 	addi	r17,r17,8
    5108:	003fdb06 	br	5078 <__alt_mem_onchip_memory2_0+0xfbfe5078>
    510c:	180d883a 	mov	r6,r3
    5110:	e00b883a 	mov	r5,fp
    5114:	da000115 	stw	r8,4(sp)
    5118:	d8c00015 	stw	r3,0(sp)
    511c:	0005fe00 	call	5fe0 <memmove>
    5120:	d8c00017 	ldw	r3,0(sp)
    5124:	80800017 	ldw	r2,0(r16)
    5128:	a009883a 	mov	r4,r20
    512c:	800b883a 	mov	r5,r16
    5130:	10c5883a 	add	r2,r2,r3
    5134:	80800015 	stw	r2,0(r16)
    5138:	d8c00015 	stw	r3,0(sp)
    513c:	00046300 	call	4630 <_fflush_r>
    5140:	d8c00017 	ldw	r3,0(sp)
    5144:	da000117 	ldw	r8,4(sp)
    5148:	103fc21e 	bne	r2,zero,5054 <__alt_mem_onchip_memory2_0+0xfbfe5054>
    514c:	182d883a 	mov	r22,r3
    5150:	9da7c83a 	sub	r19,r19,r22
    5154:	983fe11e 	bne	r19,zero,50dc <__alt_mem_onchip_memory2_0+0xfbfe50dc>
    5158:	a009883a 	mov	r4,r20
    515c:	800b883a 	mov	r5,r16
    5160:	00046300 	call	4630 <_fflush_r>
    5164:	103fbb1e 	bne	r2,zero,5054 <__alt_mem_onchip_memory2_0+0xfbfe5054>
    5168:	0011883a 	mov	r8,zero
    516c:	003fdb06 	br	50dc <__alt_mem_onchip_memory2_0+0xfbfe50dc>
    5170:	81000017 	ldw	r4,0(r16)
    5174:	80800417 	ldw	r2,16(r16)
    5178:	11000236 	bltu	r2,r4,5184 <__sfvwrite_r+0x314>
    517c:	84c00517 	ldw	r19,20(r16)
    5180:	94ffa62e 	bgeu	r18,r19,501c <__alt_mem_onchip_memory2_0+0xfbfe501c>
    5184:	9027883a 	mov	r19,r18
    5188:	b480012e 	bgeu	r22,r18,5190 <__sfvwrite_r+0x320>
    518c:	b027883a 	mov	r19,r22
    5190:	e00b883a 	mov	r5,fp
    5194:	980d883a 	mov	r6,r19
    5198:	0005fe00 	call	5fe0 <memmove>
    519c:	80800217 	ldw	r2,8(r16)
    51a0:	80c00017 	ldw	r3,0(r16)
    51a4:	14c5c83a 	sub	r2,r2,r19
    51a8:	1cc7883a 	add	r3,r3,r19
    51ac:	80800215 	stw	r2,8(r16)
    51b0:	80c00015 	stw	r3,0(r16)
    51b4:	10004326 	beq	r2,zero,52c4 <__sfvwrite_r+0x454>
    51b8:	9805883a 	mov	r2,r19
    51bc:	003f8506 	br	4fd4 <__alt_mem_onchip_memory2_0+0xfbfe4fd4>
    51c0:	a80d883a 	mov	r6,r21
    51c4:	e00b883a 	mov	r5,fp
    51c8:	da000115 	stw	r8,4(sp)
    51cc:	0005fe00 	call	5fe0 <memmove>
    51d0:	80800217 	ldw	r2,8(r16)
    51d4:	80c00017 	ldw	r3,0(r16)
    51d8:	da000117 	ldw	r8,4(sp)
    51dc:	1545c83a 	sub	r2,r2,r21
    51e0:	1d6b883a 	add	r21,r3,r21
    51e4:	80800215 	stw	r2,8(r16)
    51e8:	85400015 	stw	r21,0(r16)
    51ec:	003fb906 	br	50d4 <__alt_mem_onchip_memory2_0+0xfbfe50d4>
    51f0:	81000017 	ldw	r4,0(r16)
    51f4:	902d883a 	mov	r22,r18
    51f8:	9027883a 	mov	r19,r18
    51fc:	003f6b06 	br	4fac <__alt_mem_onchip_memory2_0+0xfbfe4fac>
    5200:	e009883a 	mov	r4,fp
    5204:	01400284 	movi	r5,10
    5208:	900d883a 	mov	r6,r18
    520c:	0005ef80 	call	5ef8 <memchr>
    5210:	10003e26 	beq	r2,zero,530c <__sfvwrite_r+0x49c>
    5214:	10800044 	addi	r2,r2,1
    5218:	1727c83a 	sub	r19,r2,fp
    521c:	02000044 	movi	r8,1
    5220:	003f9706 	br	5080 <__alt_mem_onchip_memory2_0+0xfbfe5080>
    5224:	80800517 	ldw	r2,20(r16)
    5228:	81400417 	ldw	r5,16(r16)
    522c:	80c00017 	ldw	r3,0(r16)
    5230:	10a7883a 	add	r19,r2,r2
    5234:	9885883a 	add	r2,r19,r2
    5238:	1026d7fa 	srli	r19,r2,31
    523c:	196bc83a 	sub	r21,r3,r5
    5240:	a9800044 	addi	r6,r21,1
    5244:	9885883a 	add	r2,r19,r2
    5248:	1027d07a 	srai	r19,r2,1
    524c:	3485883a 	add	r2,r6,r18
    5250:	980d883a 	mov	r6,r19
    5254:	9880022e 	bgeu	r19,r2,5260 <__sfvwrite_r+0x3f0>
    5258:	1027883a 	mov	r19,r2
    525c:	100d883a 	mov	r6,r2
    5260:	2101000c 	andi	r4,r4,1024
    5264:	20001c26 	beq	r4,zero,52d8 <__sfvwrite_r+0x468>
    5268:	a009883a 	mov	r4,r20
    526c:	300b883a 	mov	r5,r6
    5270:	00057500 	call	5750 <_malloc_r>
    5274:	102d883a 	mov	r22,r2
    5278:	10002926 	beq	r2,zero,5320 <__sfvwrite_r+0x4b0>
    527c:	81400417 	ldw	r5,16(r16)
    5280:	1009883a 	mov	r4,r2
    5284:	a80d883a 	mov	r6,r21
    5288:	00005440 	call	544 <memcpy>
    528c:	8080030b 	ldhu	r2,12(r16)
    5290:	00fedfc4 	movi	r3,-1153
    5294:	10c4703a 	and	r2,r2,r3
    5298:	10802014 	ori	r2,r2,128
    529c:	8080030d 	sth	r2,12(r16)
    52a0:	b549883a 	add	r4,r22,r21
    52a4:	9d4bc83a 	sub	r5,r19,r21
    52a8:	85800415 	stw	r22,16(r16)
    52ac:	84c00515 	stw	r19,20(r16)
    52b0:	81000015 	stw	r4,0(r16)
    52b4:	902d883a 	mov	r22,r18
    52b8:	81400215 	stw	r5,8(r16)
    52bc:	9027883a 	mov	r19,r18
    52c0:	003f3a06 	br	4fac <__alt_mem_onchip_memory2_0+0xfbfe4fac>
    52c4:	a009883a 	mov	r4,r20
    52c8:	800b883a 	mov	r5,r16
    52cc:	00046300 	call	4630 <_fflush_r>
    52d0:	103fb926 	beq	r2,zero,51b8 <__alt_mem_onchip_memory2_0+0xfbfe51b8>
    52d4:	003f5f06 	br	5054 <__alt_mem_onchip_memory2_0+0xfbfe5054>
    52d8:	a009883a 	mov	r4,r20
    52dc:	00072480 	call	7248 <_realloc_r>
    52e0:	102d883a 	mov	r22,r2
    52e4:	103fee1e 	bne	r2,zero,52a0 <__alt_mem_onchip_memory2_0+0xfbfe52a0>
    52e8:	81400417 	ldw	r5,16(r16)
    52ec:	a009883a 	mov	r4,r20
    52f0:	0004b800 	call	4b80 <_free_r>
    52f4:	8080030b 	ldhu	r2,12(r16)
    52f8:	00ffdfc4 	movi	r3,-129
    52fc:	1884703a 	and	r2,r3,r2
    5300:	00c00304 	movi	r3,12
    5304:	a0c00015 	stw	r3,0(r20)
    5308:	003f5306 	br	5058 <__alt_mem_onchip_memory2_0+0xfbfe5058>
    530c:	94c00044 	addi	r19,r18,1
    5310:	02000044 	movi	r8,1
    5314:	003f5a06 	br	5080 <__alt_mem_onchip_memory2_0+0xfbfe5080>
    5318:	00bfffc4 	movi	r2,-1
    531c:	003f0206 	br	4f28 <__alt_mem_onchip_memory2_0+0xfbfe4f28>
    5320:	00800304 	movi	r2,12
    5324:	a0800015 	stw	r2,0(r20)
    5328:	8080030b 	ldhu	r2,12(r16)
    532c:	003f4a06 	br	5058 <__alt_mem_onchip_memory2_0+0xfbfe5058>

00005330 <_fwalk>:
    5330:	defff704 	addi	sp,sp,-36
    5334:	dd000415 	stw	r20,16(sp)
    5338:	dfc00815 	stw	ra,32(sp)
    533c:	ddc00715 	stw	r23,28(sp)
    5340:	dd800615 	stw	r22,24(sp)
    5344:	dd400515 	stw	r21,20(sp)
    5348:	dcc00315 	stw	r19,12(sp)
    534c:	dc800215 	stw	r18,8(sp)
    5350:	dc400115 	stw	r17,4(sp)
    5354:	dc000015 	stw	r16,0(sp)
    5358:	2500b804 	addi	r20,r4,736
    535c:	a0002326 	beq	r20,zero,53ec <_fwalk+0xbc>
    5360:	282b883a 	mov	r21,r5
    5364:	002f883a 	mov	r23,zero
    5368:	05800044 	movi	r22,1
    536c:	04ffffc4 	movi	r19,-1
    5370:	a4400117 	ldw	r17,4(r20)
    5374:	a4800217 	ldw	r18,8(r20)
    5378:	8c7fffc4 	addi	r17,r17,-1
    537c:	88000d16 	blt	r17,zero,53b4 <_fwalk+0x84>
    5380:	94000304 	addi	r16,r18,12
    5384:	94800384 	addi	r18,r18,14
    5388:	80c0000b 	ldhu	r3,0(r16)
    538c:	8c7fffc4 	addi	r17,r17,-1
    5390:	813ffd04 	addi	r4,r16,-12
    5394:	b0c0042e 	bgeu	r22,r3,53a8 <_fwalk+0x78>
    5398:	90c0000f 	ldh	r3,0(r18)
    539c:	1cc00226 	beq	r3,r19,53a8 <_fwalk+0x78>
    53a0:	a83ee83a 	callr	r21
    53a4:	b8aeb03a 	or	r23,r23,r2
    53a8:	84001a04 	addi	r16,r16,104
    53ac:	94801a04 	addi	r18,r18,104
    53b0:	8cfff51e 	bne	r17,r19,5388 <__alt_mem_onchip_memory2_0+0xfbfe5388>
    53b4:	a5000017 	ldw	r20,0(r20)
    53b8:	a03fed1e 	bne	r20,zero,5370 <__alt_mem_onchip_memory2_0+0xfbfe5370>
    53bc:	b805883a 	mov	r2,r23
    53c0:	dfc00817 	ldw	ra,32(sp)
    53c4:	ddc00717 	ldw	r23,28(sp)
    53c8:	dd800617 	ldw	r22,24(sp)
    53cc:	dd400517 	ldw	r21,20(sp)
    53d0:	dd000417 	ldw	r20,16(sp)
    53d4:	dcc00317 	ldw	r19,12(sp)
    53d8:	dc800217 	ldw	r18,8(sp)
    53dc:	dc400117 	ldw	r17,4(sp)
    53e0:	dc000017 	ldw	r16,0(sp)
    53e4:	dec00904 	addi	sp,sp,36
    53e8:	f800283a 	ret
    53ec:	002f883a 	mov	r23,zero
    53f0:	003ff206 	br	53bc <__alt_mem_onchip_memory2_0+0xfbfe53bc>

000053f4 <_fwalk_reent>:
    53f4:	defff704 	addi	sp,sp,-36
    53f8:	dd400515 	stw	r21,20(sp)
    53fc:	dfc00815 	stw	ra,32(sp)
    5400:	ddc00715 	stw	r23,28(sp)
    5404:	dd800615 	stw	r22,24(sp)
    5408:	dd000415 	stw	r20,16(sp)
    540c:	dcc00315 	stw	r19,12(sp)
    5410:	dc800215 	stw	r18,8(sp)
    5414:	dc400115 	stw	r17,4(sp)
    5418:	dc000015 	stw	r16,0(sp)
    541c:	2540b804 	addi	r21,r4,736
    5420:	a8002326 	beq	r21,zero,54b0 <_fwalk_reent+0xbc>
    5424:	2829883a 	mov	r20,r5
    5428:	202d883a 	mov	r22,r4
    542c:	002f883a 	mov	r23,zero
    5430:	04c00044 	movi	r19,1
    5434:	04bfffc4 	movi	r18,-1
    5438:	ac400117 	ldw	r17,4(r21)
    543c:	ac000217 	ldw	r16,8(r21)
    5440:	8c7fffc4 	addi	r17,r17,-1
    5444:	88000c16 	blt	r17,zero,5478 <_fwalk_reent+0x84>
    5448:	84000304 	addi	r16,r16,12
    544c:	80c0000b 	ldhu	r3,0(r16)
    5450:	8c7fffc4 	addi	r17,r17,-1
    5454:	817ffd04 	addi	r5,r16,-12
    5458:	98c0052e 	bgeu	r19,r3,5470 <_fwalk_reent+0x7c>
    545c:	80c0008f 	ldh	r3,2(r16)
    5460:	b009883a 	mov	r4,r22
    5464:	1c800226 	beq	r3,r18,5470 <_fwalk_reent+0x7c>
    5468:	a03ee83a 	callr	r20
    546c:	b8aeb03a 	or	r23,r23,r2
    5470:	84001a04 	addi	r16,r16,104
    5474:	8cbff51e 	bne	r17,r18,544c <__alt_mem_onchip_memory2_0+0xfbfe544c>
    5478:	ad400017 	ldw	r21,0(r21)
    547c:	a83fee1e 	bne	r21,zero,5438 <__alt_mem_onchip_memory2_0+0xfbfe5438>
    5480:	b805883a 	mov	r2,r23
    5484:	dfc00817 	ldw	ra,32(sp)
    5488:	ddc00717 	ldw	r23,28(sp)
    548c:	dd800617 	ldw	r22,24(sp)
    5490:	dd400517 	ldw	r21,20(sp)
    5494:	dd000417 	ldw	r20,16(sp)
    5498:	dcc00317 	ldw	r19,12(sp)
    549c:	dc800217 	ldw	r18,8(sp)
    54a0:	dc400117 	ldw	r17,4(sp)
    54a4:	dc000017 	ldw	r16,0(sp)
    54a8:	dec00904 	addi	sp,sp,36
    54ac:	f800283a 	ret
    54b0:	002f883a 	mov	r23,zero
    54b4:	003ff206 	br	5480 <__alt_mem_onchip_memory2_0+0xfbfe5480>

000054b8 <_setlocale_r>:
    54b8:	30001b26 	beq	r6,zero,5528 <_setlocale_r+0x70>
    54bc:	01400074 	movhi	r5,1
    54c0:	defffe04 	addi	sp,sp,-8
    54c4:	297fbc04 	addi	r5,r5,-272
    54c8:	3009883a 	mov	r4,r6
    54cc:	dc000015 	stw	r16,0(sp)
    54d0:	dfc00115 	stw	ra,4(sp)
    54d4:	3021883a 	mov	r16,r6
    54d8:	00079b40 	call	79b4 <strcmp>
    54dc:	1000061e 	bne	r2,zero,54f8 <_setlocale_r+0x40>
    54e0:	00800074 	movhi	r2,1
    54e4:	10bfbb04 	addi	r2,r2,-276
    54e8:	dfc00117 	ldw	ra,4(sp)
    54ec:	dc000017 	ldw	r16,0(sp)
    54f0:	dec00204 	addi	sp,sp,8
    54f4:	f800283a 	ret
    54f8:	01400074 	movhi	r5,1
    54fc:	297fbb04 	addi	r5,r5,-276
    5500:	8009883a 	mov	r4,r16
    5504:	00079b40 	call	79b4 <strcmp>
    5508:	103ff526 	beq	r2,zero,54e0 <__alt_mem_onchip_memory2_0+0xfbfe54e0>
    550c:	01400074 	movhi	r5,1
    5510:	297fa604 	addi	r5,r5,-360
    5514:	8009883a 	mov	r4,r16
    5518:	00079b40 	call	79b4 <strcmp>
    551c:	103ff026 	beq	r2,zero,54e0 <__alt_mem_onchip_memory2_0+0xfbfe54e0>
    5520:	0005883a 	mov	r2,zero
    5524:	003ff006 	br	54e8 <__alt_mem_onchip_memory2_0+0xfbfe54e8>
    5528:	00800074 	movhi	r2,1
    552c:	10bfbb04 	addi	r2,r2,-276
    5530:	f800283a 	ret

00005534 <__locale_charset>:
    5534:	00800074 	movhi	r2,1
    5538:	1081af04 	addi	r2,r2,1724
    553c:	f800283a 	ret

00005540 <__locale_mb_cur_max>:
    5540:	00800074 	movhi	r2,1
    5544:	10874f04 	addi	r2,r2,7484
    5548:	10800017 	ldw	r2,0(r2)
    554c:	f800283a 	ret

00005550 <__locale_msgcharset>:
    5550:	00800074 	movhi	r2,1
    5554:	1081a704 	addi	r2,r2,1692
    5558:	f800283a 	ret

0000555c <__locale_cjk_lang>:
    555c:	0005883a 	mov	r2,zero
    5560:	f800283a 	ret

00005564 <_localeconv_r>:
    5564:	00800074 	movhi	r2,1
    5568:	1081b704 	addi	r2,r2,1756
    556c:	f800283a 	ret

00005570 <setlocale>:
    5570:	00c00074 	movhi	r3,1
    5574:	18c74e04 	addi	r3,r3,7480
    5578:	2005883a 	mov	r2,r4
    557c:	19000017 	ldw	r4,0(r3)
    5580:	280d883a 	mov	r6,r5
    5584:	100b883a 	mov	r5,r2
    5588:	00054b81 	jmpi	54b8 <_setlocale_r>

0000558c <localeconv>:
    558c:	00800074 	movhi	r2,1
    5590:	1081b704 	addi	r2,r2,1756
    5594:	f800283a 	ret

00005598 <__smakebuf_r>:
    5598:	2880030b 	ldhu	r2,12(r5)
    559c:	10c0008c 	andi	r3,r2,2
    55a0:	1800401e 	bne	r3,zero,56a4 <__smakebuf_r+0x10c>
